(dp0
S'7.14'
p1
(dp2
S'unsuited'
p3
(lp4
(lp5
F0.60160000000000002
aF0.050900000000000001
aF0.34749999999999998
aa(lp6
F0.40820000000000001
aF0.069400000000000003
aF0.52239999999999998
aa(lp7
F0.29830000000000001
aF0.077600000000000002
aF0.62409999999999999
aa(lp8
F0.2339
aF0.092299999999999993
aF0.67379999999999995
aa(lp9
F0.17680000000000001
aF0.1004
aF0.7228
aa(lp10
F0.1583
aF0.1119
aF0.7298
aa(lp11
F0.1293
aF0.1226
aF0.74809999999999999
aa(lp12
F0.1075
aF0.13320000000000001
aF0.75929999999999997
aa(lp13
F0.091700000000000004
aF0.1351
aF0.7732
aasS'suited'
p14
(lp15
(lp16
F0.62480000000000002
aF0.045199999999999997
aF0.33000000000000002
aa(lp17
F0.45000000000000001
aF0.062300000000000001
aF0.48770000000000002
aa(lp18
F0.3574
aF0.070599999999999996
aF0.57199999999999995
aa(lp19
F0.29070000000000001
aF0.084199999999999997
aF0.62509999999999999
aa(lp20
F0.24429999999999999
aF0.095500000000000002
aF0.66020000000000001
aa(lp21
F0.2084
aF0.10979999999999999
aF0.68179999999999996
aa(lp22
F0.1908
aF0.1134
aF0.69579999999999997
aa(lp23
F0.16930000000000001
aF0.125
aF0.70569999999999999
aa(lp24
F0.157
aF0.12859999999999999
aF0.71440000000000003
aassS'7.10'
p25
(dp26
g3
(lp27
(lp28
F0.504
aF0.062100000000000002
aF0.43390000000000001
aa(lp29
F0.3322
aF0.068099999999999994
aF0.59970000000000001
aa(lp30
F0.2409
aF0.080199999999999994
aF0.67889999999999995
aa(lp31
F0.18429999999999999
aF0.088400000000000006
aF0.72729999999999995
aa(lp32
F0.15440000000000001
aF0.0964
aF0.74919999999999998
aa(lp33
F0.1206
aF0.1116
aF0.76780000000000004
aa(lp34
F0.1018
aF0.12039999999999999
aF0.77780000000000005
aa(lp35
F0.083400000000000002
aF0.121
aF0.79559999999999997
aa(lp36
F0.0751
aF0.1444
aF0.78049999999999997
aasg14
(lp37
(lp38
F0.5333
aF0.051200000000000002
aF0.41549999999999998
aa(lp39
F0.37990000000000002
aF0.061400000000000003
aF0.55869999999999997
aa(lp40
F0.3014
aF0.074499999999999997
aF0.62409999999999999
aa(lp41
F0.24360000000000001
aF0.086999999999999994
aF0.6694
aa(lp42
F0.2102
aF0.094700000000000006
aF0.69510000000000005
aa(lp43
F0.18310000000000001
aF0.099500000000000005
aF0.71740000000000004
aa(lp44
F0.16569999999999999
aF0.11600000000000001
aF0.71830000000000005
aa(lp45
F0.13980000000000001
aF0.1113
aF0.74890000000000001
aa(lp46
F0.12809999999999999
aF0.12770000000000001
aF0.74419999999999997
aassS'7.11'
p47
(dp48
g3
(lp49
(lp50
F0.51270000000000004
aF0.058599999999999999
aF0.42870000000000003
aa(lp51
F0.33189999999999997
aF0.0693
aF0.5988
aa(lp52
F0.24990000000000001
aF0.072999999999999995
aF0.67710000000000004
aa(lp53
F0.18890000000000001
aF0.090200000000000002
aF0.72089999999999999
aa(lp54
F0.14760000000000001
aF0.096600000000000005
aF0.75580000000000003
aa(lp55
F0.1241
aF0.1157
aF0.76019999999999999
aa(lp56
F0.1056
aF0.1221
aF0.77229999999999999
aa(lp57
F0.080600000000000005
aF0.1295
aF0.78990000000000005
aa(lp58
F0.075600000000000001
aF0.13689999999999999
aF0.78749999999999998
aasg14
(lp59
(lp60
F0.54090000000000005
aF0.058599999999999999
aF0.40050000000000002
aa(lp61
F0.38129999999999997
aF0.064600000000000005
aF0.55410000000000004
aa(lp62
F0.29149999999999998
aF0.070900000000000005
aF0.63759999999999994
aa(lp63
F0.25140000000000001
aF0.083500000000000005
aF0.66510000000000002
aa(lp64
F0.2074
aF0.093600000000000003
aF0.69899999999999995
aa(lp65
F0.18740000000000001
aF0.097799999999999998
aF0.71479999999999999
aa(lp66
F0.15409999999999999
aF0.1089
aF0.73699999999999999
aa(lp67
F0.1396
aF0.12239999999999999
aF0.73799999999999999
aa(lp68
F0.12909999999999999
aF0.13139999999999999
aF0.73950000000000005
aassS'7.12'
p69
(dp70
g3
(lp71
(lp72
F0.54159999999999997
aF0.058400000000000001
aF0.40000000000000002
aa(lp73
F0.35830000000000001
aF0.069099999999999995
aF0.5726
aa(lp74
F0.252
aF0.078299999999999995
aF0.66969999999999996
aa(lp75
F0.19889999999999999
aF0.093399999999999997
aF0.7077
aa(lp76
F0.15559999999999999
aF0.1014
aF0.74299999999999999
aa(lp77
F0.12759999999999999
aF0.11600000000000001
aF0.75639999999999996
aa(lp78
F0.1076
aF0.1177
aF0.77470000000000006
aa(lp79
F0.087999999999999995
aF0.12870000000000001
aF0.7833
aa(lp80
F0.074300000000000005
aF0.13550000000000001
aF0.79020000000000001
aasg14
(lp81
(lp82
F0.5716
aF0.050299999999999997
aF0.37809999999999999
aa(lp83
F0.39319999999999999
aF0.060400000000000002
aF0.5464
aa(lp84
F0.29959999999999998
aF0.071099999999999997
aF0.62929999999999997
aa(lp85
F0.24460000000000001
aF0.082900000000000001
aF0.67249999999999999
aa(lp86
F0.21440000000000001
aF0.095100000000000004
aF0.6905
aa(lp87
F0.18790000000000001
aF0.099900000000000003
aF0.71220000000000006
aa(lp88
F0.1686
aF0.1091
aF0.72230000000000005
aa(lp89
F0.15229999999999999
aF0.123
aF0.72470000000000001
aa(lp90
F0.12889999999999999
aF0.1303
aF0.74080000000000001
aassS'7.13'
p91
(dp92
g3
(lp93
(lp94
F0.5635
aF0.056599999999999998
aF0.37990000000000002
aa(lp95
F0.38179999999999997
aF0.063299999999999995
aF0.55489999999999995
aa(lp96
F0.26850000000000002
aF0.078799999999999995
aF0.65269999999999995
aa(lp97
F0.21479999999999999
aF0.086900000000000005
aF0.69830000000000003
aa(lp98
F0.16259999999999999
aF0.1033
aF0.73409999999999997
aa(lp99
F0.14349999999999999
aF0.11119999999999999
aF0.74529999999999996
aa(lp100
F0.1163
aF0.12230000000000001
aF0.76139999999999997
aa(lp101
F0.099599999999999994
aF0.13239999999999999
aF0.76800000000000002
aa(lp102
F0.084199999999999997
aF0.14099999999999999
aF0.77480000000000004
aasg14
(lp103
(lp104
F0.59209999999999996
aF0.050700000000000002
aF0.35720000000000002
aa(lp105
F0.41239999999999999
aF0.058299999999999998
aF0.52929999999999999
aa(lp106
F0.32940000000000003
aF0.076999999999999999
aF0.59360000000000002
aa(lp107
F0.27089999999999997
aF0.081900000000000001
aF0.6472
aa(lp108
F0.22689999999999999
aF0.0906
aF0.6825
aa(lp109
F0.20030000000000001
aF0.1023
aF0.69740000000000002
aa(lp110
F0.17860000000000001
aF0.1129
aF0.70850000000000002
aa(lp111
F0.15590000000000001
aF0.12540000000000001
aF0.71870000000000001
aa(lp112
F0.1452
aF0.1295
aF0.72529999999999994
aassS'6.7'
p113
(dp114
g3
(lp115
(lp116
F0.43669999999999998
aF0.075499999999999998
aF0.48780000000000001
aa(lp117
F0.29630000000000001
aF0.073400000000000007
aF0.63029999999999997
aa(lp118
F0.21779999999999999
aF0.085800000000000001
aF0.69640000000000002
aa(lp119
F0.1724
aF0.0843
aF0.74329999999999996
aa(lp120
F0.14330000000000001
aF0.098400000000000001
aF0.75829999999999997
aa(lp121
F0.1143
aF0.1137
aF0.77200000000000002
aa(lp122
F0.095600000000000004
aF0.1137
aF0.79069999999999996
aa(lp123
F0.0843
aF0.1237
aF0.79200000000000004
aa(lp124
F0.079299999999999995
aF0.1361
aF0.78459999999999996
aasg14
(lp125
(lp126
F0.47770000000000001
aF0.070099999999999996
aF0.45219999999999999
aa(lp127
F0.3553
aF0.0683
aF0.57640000000000002
aa(lp128
F0.27400000000000002
aF0.077799999999999994
aF0.6482
aa(lp129
F0.22600000000000001
aF0.083400000000000002
aF0.69059999999999999
aa(lp130
F0.19719999999999999
aF0.090399999999999994
aF0.71240000000000003
aa(lp131
F0.17580000000000001
aF0.1018
aF0.72240000000000004
aa(lp132
F0.15190000000000001
aF0.11
aF0.73809999999999998
aa(lp133
F0.13819999999999999
aF0.1203
aF0.74150000000000005
aa(lp134
F0.1265
aF0.128
aF0.74550000000000005
aassS'6.6'
p135
(dp136
g3
(lp137
(lp138
F0.6845
aF0.0183
aF0.29720000000000002
aa(lp139
F0.52280000000000004
aF0.027300000000000001
aF0.44990000000000002
aa(lp140
F0.40360000000000001
aF0.040300000000000002
aF0.55610000000000004
aa(lp141
F0.34179999999999999
aF0.046600000000000003
aF0.61160000000000003
aa(lp142
F0.29930000000000001
aF0.061100000000000002
aF0.63959999999999995
aa(lp143
F0.27029999999999998
aF0.069099999999999995
aF0.66059999999999997
aa(lp144
F0.24690000000000001
aF0.079299999999999995
aF0.67379999999999995
aa(lp145
F0.22700000000000001
aF0.094399999999999998
aF0.67859999999999998
aa(lp146
F0.2145
aF0.1038
aF0.68169999999999997
aasg14
(lp147
(lp148
F0.70220000000000005
aF0.017600000000000001
aF0.2802
aa(lp149
F0.54049999999999998
aF0.024899999999999999
aF0.43459999999999999
aa(lp150
F0.44290000000000002
aF0.032199999999999999
aF0.52490000000000003
aa(lp151
F0.3952
aF0.042999999999999997
aF0.56179999999999997
aa(lp152
F0.33789999999999998
aF0.057000000000000002
aF0.60509999999999997
aa(lp153
F0.30449999999999999
aF0.0683
aF0.62719999999999998
aa(lp154
F0.27989999999999998
aF0.072999999999999995
aF0.64710000000000001
aa(lp155
F0.26429999999999998
aF0.079299999999999995
aF0.65639999999999998
aa(lp156
F0.25109999999999999
aF0.093799999999999994
aF0.65510000000000002
aassS'7.7'
p157
(dp158
g3
(lp159
(lp160
F0.71079999999999999
aF0.014999999999999999
aF0.2742
aa(lp161
F0.53520000000000001
aF0.026700000000000002
aF0.43809999999999999
aa(lp162
F0.44019999999999998
aF0.0373
aF0.52249999999999996
aa(lp163
F0.35520000000000002
aF0.044900000000000002
aF0.59989999999999999
aa(lp164
F0.311
aF0.059299999999999999
aF0.62970000000000004
aa(lp165
F0.2797
aF0.069699999999999998
aF0.65059999999999996
aa(lp166
F0.2576
aF0.080399999999999999
aF0.66200000000000003
aa(lp167
F0.2427
aF0.089800000000000005
aF0.66749999999999998
aa(lp168
F0.23230000000000001
aF0.098299999999999998
aF0.6694
aasg14
(lp169
(lp170
F0.73080000000000001
aF0.014999999999999999
aF0.25419999999999998
aa(lp171
F0.55830000000000002
aF0.021100000000000001
aF0.42059999999999997
aa(lp172
F0.46970000000000001
aF0.031300000000000001
aF0.499
aa(lp173
F0.39879999999999999
aF0.040500000000000001
aF0.56069999999999998
aa(lp174
F0.35610000000000003
aF0.054899999999999997
aF0.58899999999999997
aa(lp175
F0.32479999999999998
aF0.063799999999999996
aF0.61140000000000005
aa(lp176
F0.30180000000000001
aF0.077299999999999994
aF0.62090000000000001
aa(lp177
F0.27750000000000002
aF0.084900000000000003
aF0.63759999999999994
aa(lp178
F0.26190000000000002
aF0.094700000000000006
aF0.64339999999999997
aassS'8.14'
p179
(dp180
g3
(lp181
(lp182
F0.61850000000000005
aF0.047199999999999999
aF0.33429999999999999
aa(lp183
F0.41830000000000001
aF0.061400000000000003
aF0.52029999999999998
aa(lp184
F0.31330000000000002
aF0.076700000000000004
aF0.60999999999999999
aa(lp185
F0.23860000000000001
aF0.092700000000000005
aF0.66869999999999996
aa(lp186
F0.19839999999999999
aF0.1009
aF0.70069999999999999
aa(lp187
F0.1623
aF0.1115
aF0.72619999999999996
aa(lp188
F0.13650000000000001
aF0.11990000000000001
aF0.74360000000000004
aa(lp189
F0.1137
aF0.13239999999999999
aF0.75390000000000001
aa(lp190
F0.10349999999999999
aF0.1368
aF0.75970000000000004
aasg14
(lp191
(lp192
F0.63090000000000002
aF0.0424
aF0.32669999999999999
aa(lp193
F0.45989999999999998
aF0.057599999999999998
aF0.48249999999999998
aa(lp194
F0.36749999999999999
aF0.071499999999999994
aF0.56100000000000005
aa(lp195
F0.29649999999999999
aF0.081299999999999997
aF0.62219999999999998
aa(lp196
F0.25440000000000002
aF0.093799999999999994
aF0.65180000000000005
aa(lp197
F0.2195
aF0.099900000000000003
aF0.68059999999999998
aa(lp198
F0.19689999999999999
aF0.1114
aF0.69169999999999998
aa(lp199
F0.18010000000000001
aF0.12509999999999999
aF0.69479999999999997
aa(lp200
F0.17549999999999999
aF0.12870000000000001
aF0.69579999999999997
aassS'7.8'
p201
(dp202
g3
(lp203
(lp204
F0.47370000000000001
aF0.062399999999999997
aF0.46389999999999998
aa(lp205
F0.3211
aF0.0683
aF0.61060000000000003
aa(lp206
F0.24179999999999999
aF0.075899999999999995
aF0.68230000000000002
aa(lp207
F0.19239999999999999
aF0.085400000000000004
aF0.72219999999999995
aa(lp208
F0.15310000000000001
aF0.094100000000000003
aF0.75280000000000002
aa(lp209
F0.12670000000000001
aF0.1133
aF0.76000000000000001
aa(lp210
F0.1094
aF0.122
aF0.76859999999999995
aa(lp211
F0.096799999999999997
aF0.1221
aF0.78110000000000002
aa(lp212
F0.086300000000000002
aF0.13689999999999999
aF0.77680000000000005
aasg14
(lp213
(lp214
F0.49740000000000001
aF0.060600000000000001
aF0.442
aa(lp215
F0.36059999999999998
aF0.063200000000000006
aF0.57620000000000005
aa(lp216
F0.28860000000000002
aF0.073099999999999998
aF0.63829999999999998
aa(lp217
F0.22989999999999999
aF0.083799999999999999
aF0.68630000000000002
aa(lp218
F0.20830000000000001
aF0.089399999999999993
aF0.70230000000000004
aa(lp219
F0.17549999999999999
aF0.1022
aF0.72230000000000005
aa(lp220
F0.15590000000000001
aF0.111
aF0.73309999999999997
aa(lp221
F0.14610000000000001
aF0.1164
aF0.73750000000000004
aa(lp222
F0.13489999999999999
aF0.13150000000000001
aF0.73360000000000003
aassS'7.9'
p223
(dp224
g3
(lp225
(lp226
F0.48609999999999998
aF0.064199999999999993
aF0.44969999999999999
aa(lp227
F0.32169999999999999
aF0.069099999999999995
aF0.60919999999999996
aa(lp228
F0.24759999999999999
aF0.077700000000000005
aF0.67469999999999997
aa(lp229
F0.1913
aF0.085800000000000001
aF0.72289999999999999
aa(lp230
F0.15390000000000001
aF0.095600000000000004
aF0.75049999999999994
aa(lp231
F0.1221
aF0.1108
aF0.7671
aa(lp232
F0.1065
aF0.1139
aF0.77959999999999996
aa(lp233
F0.089599999999999999
aF0.12189999999999999
aF0.78849999999999998
aa(lp234
F0.079299999999999995
aF0.1333
aF0.78739999999999999
aasg14
(lp235
(lp236
F0.5091
aF0.056500000000000002
aF0.43440000000000001
aa(lp237
F0.38090000000000002
aF0.062899999999999998
aF0.55620000000000003
aa(lp238
F0.2878
aF0.070000000000000007
aF0.64219999999999999
aa(lp239
F0.24060000000000001
aF0.082199999999999995
aF0.67720000000000002
aa(lp240
F0.20580000000000001
aF0.094299999999999995
aF0.69989999999999997
aa(lp241
F0.17649999999999999
aF0.1041
aF0.71940000000000004
aa(lp242
F0.16339999999999999
aF0.10780000000000001
aF0.7288
aa(lp243
F0.14660000000000001
aF0.1195
aF0.7339
aa(lp244
F0.12970000000000001
aF0.1239
aF0.74639999999999995
aassS'8.11'
p245
(dp246
g3
(lp247
(lp248
F0.53259999999999996
aF0.049599999999999998
aF0.4178
aa(lp249
F0.36020000000000002
aF0.067500000000000004
aF0.57230000000000003
aa(lp250
F0.26640000000000003
aF0.074099999999999999
aF0.65949999999999998
aa(lp251
F0.20780000000000001
aF0.088400000000000006
aF0.70379999999999998
aa(lp252
F0.16839999999999999
aF0.093899999999999997
aF0.73770000000000002
aa(lp253
F0.13300000000000001
aF0.104
aF0.76300000000000001
aa(lp254
F0.1171
aF0.11899999999999999
aF0.76390000000000002
aa(lp255
F0.10000000000000001
aF0.13270000000000001
aF0.76729999999999998
aa(lp256
F0.088099999999999998
aF0.1426
aF0.76929999999999998
aasg14
(lp257
(lp258
F0.56079999999999997
aF0.0521
aF0.3871
aa(lp259
F0.40510000000000002
aF0.060699999999999997
aF0.53420000000000001
aa(lp260
F0.3236
aF0.068699999999999997
aF0.60770000000000002
aa(lp261
F0.26519999999999999
aF0.078399999999999997
aF0.65639999999999998
aa(lp262
F0.2324
aF0.089099999999999999
aF0.67849999999999999
aa(lp263
F0.1938
aF0.1003
aF0.70589999999999997
aa(lp264
F0.1686
aF0.11360000000000001
aF0.71779999999999999
aa(lp265
F0.15160000000000001
aF0.124
aF0.72440000000000004
aa(lp266
F0.1424
aF0.13320000000000001
aF0.72440000000000004
aassS'8.10'
p267
(dp268
g3
(lp269
(lp270
F0.52239999999999998
aF0.054300000000000001
aF0.42330000000000001
aa(lp271
F0.35249999999999998
aF0.066000000000000003
aF0.58150000000000002
aa(lp272
F0.2681
aF0.076999999999999999
aF0.65490000000000004
aa(lp273
F0.2059
aF0.087599999999999997
aF0.70650000000000002
aa(lp274
F0.17069999999999999
aF0.1011
aF0.72819999999999996
aa(lp275
F0.13650000000000001
aF0.1077
aF0.75580000000000003
aa(lp276
F0.11700000000000001
aF0.12280000000000001
aF0.76019999999999999
aa(lp277
F0.1033
aF0.12859999999999999
aF0.7681
aa(lp278
F0.085999999999999993
aF0.13769999999999999
aF0.77629999999999999
aasg14
(lp279
(lp280
F0.54849999999999999
aF0.049299999999999997
aF0.4022
aa(lp281
F0.39600000000000002
aF0.061600000000000002
aF0.54239999999999999
aa(lp282
F0.31159999999999999
aF0.076600000000000001
aF0.61180000000000001
aa(lp283
F0.25569999999999998
aF0.079799999999999996
aF0.66449999999999998
aa(lp284
F0.219
aF0.089999999999999997
aF0.69099999999999995
aa(lp285
F0.19209999999999999
aF0.099400000000000002
aF0.70850000000000002
aa(lp286
F0.17299999999999999
aF0.1099
aF0.71709999999999996
aa(lp287
F0.15559999999999999
aF0.1179
aF0.72650000000000003
aa(lp288
F0.14149999999999999
aF0.1265
aF0.73199999999999998
aassS'6.9'
p289
(dp290
g3
(lp291
(lp292
F0.46660000000000001
aF0.059999999999999998
aF0.47339999999999999
aa(lp293
F0.3054
aF0.073400000000000007
aF0.62119999999999997
aa(lp294
F0.23080000000000001
aF0.073599999999999999
aF0.6956
aa(lp295
F0.16839999999999999
aF0.091700000000000004
aF0.7399
aa(lp296
F0.13300000000000001
aF0.0974
aF0.76959999999999995
aa(lp297
F0.11119999999999999
aF0.1011
aF0.78769999999999996
aa(lp298
F0.0911
aF0.1144
aF0.79449999999999998
aa(lp299
F0.082000000000000003
aF0.12759999999999999
aF0.79039999999999999
aa(lp300
F0.064600000000000005
aF0.13730000000000001
aF0.79810000000000003
aasg14
(lp301
(lp302
F0.504
aF0.056899999999999999
aF0.43909999999999999
aa(lp303
F0.34420000000000001
aF0.067900000000000002
aF0.58789999999999998
aa(lp304
F0.27429999999999999
aF0.079899999999999999
aF0.64580000000000004
aa(lp305
F0.22289999999999999
aF0.082799999999999999
aF0.69430000000000003
aa(lp306
F0.1852
aF0.087599999999999997
aF0.72719999999999996
aa(lp307
F0.16789999999999999
aF0.095899999999999999
aF0.73619999999999997
aa(lp308
F0.14399999999999999
aF0.1106
aF0.74539999999999995
aa(lp309
F0.1331
aF0.1239
aF0.74299999999999999
aa(lp310
F0.1236
aF0.12670000000000001
aF0.74970000000000003
aassS'6.8'
p311
(dp312
g3
(lp313
(lp314
F0.44940000000000002
aF0.073599999999999999
aF0.47699999999999998
aa(lp315
F0.313
aF0.071800000000000003
aF0.61519999999999997
aa(lp316
F0.22059999999999999
aF0.072599999999999998
aF0.70679999999999998
aa(lp317
F0.16789999999999999
aF0.090499999999999997
aF0.74160000000000004
aa(lp318
F0.1368
aF0.099699999999999997
aF0.76349999999999996
aa(lp319
F0.1103
aF0.11269999999999999
aF0.77700000000000002
aa(lp320
F0.1018
aF0.11840000000000001
aF0.77980000000000005
aa(lp321
F0.078299999999999995
aF0.1288
aF0.79290000000000005
aa(lp322
F0.0746
aF0.13539999999999999
aF0.79000000000000004
aasg14
(lp323
(lp324
F0.49249999999999999
aF0.062899999999999998
aF0.4446
aa(lp325
F0.3523
aF0.064899999999999999
aF0.58279999999999998
aa(lp326
F0.27529999999999999
aF0.077499999999999999
aF0.6472
aa(lp327
F0.2137
aF0.082900000000000001
aF0.70340000000000003
aa(lp328
F0.18840000000000001
aF0.089599999999999999
aF0.72199999999999998
aa(lp329
F0.17100000000000001
aF0.099900000000000003
aF0.72909999999999997
aa(lp330
F0.1444
aF0.1072
aF0.74839999999999995
aa(lp331
F0.13450000000000001
aF0.1171
aF0.74839999999999995
aa(lp332
F0.1186
aF0.12720000000000001
aF0.75419999999999998
aassS'2.14'
p333
(dp334
g3
(lp335
(lp336
F0.55679999999999996
aF0.061699999999999998
aF0.38150000000000001
aa(lp337
F0.36759999999999998
aF0.071999999999999995
aF0.56040000000000001
aa(lp338
F0.26829999999999998
aF0.079200000000000007
aF0.65249999999999997
aa(lp339
F0.2044
aF0.091899999999999996
aF0.70369999999999999
aa(lp340
F0.15989999999999999
aF0.10299999999999999
aF0.73709999999999998
aa(lp341
F0.13519999999999999
aF0.11600000000000001
aF0.74880000000000002
aa(lp342
F0.1143
aF0.1164
aF0.76929999999999998
aa(lp343
F0.1014
aF0.13439999999999999
aF0.76419999999999999
aa(lp344
F0.085699999999999998
aF0.1462
aF0.7681
aasg14
(lp345
(lp346
F0.59119999999999995
aF0.049099999999999998
aF0.35970000000000002
aa(lp347
F0.40079999999999999
aF0.064899999999999999
aF0.5343
aa(lp348
F0.30990000000000001
aF0.077600000000000002
aF0.61250000000000004
aa(lp349
F0.26340000000000002
aF0.085199999999999998
aF0.65139999999999998
aa(lp350
F0.23039999999999999
aF0.094700000000000006
aF0.67490000000000006
aa(lp351
F0.19639999999999999
aF0.11119999999999999
aF0.69240000000000002
aa(lp352
F0.17169999999999999
aF0.11600000000000001
aF0.71230000000000004
aa(lp353
F0.15429999999999999
aF0.12909999999999999
aF0.71660000000000001
aa(lp354
F0.14860000000000001
aF0.13439999999999999
aF0.71699999999999997
aassS'2.13'
p355
(dp356
g3
(lp357
(lp358
F0.51090000000000002
aF0.062
aF0.42709999999999998
aa(lp359
F0.33300000000000002
aF0.071400000000000005
aF0.59560000000000002
aa(lp360
F0.2364
aF0.0785
aF0.68510000000000004
aa(lp361
F0.1736
aF0.088700000000000001
aF0.73770000000000002
aa(lp362
F0.14280000000000001
aF0.1028
aF0.75439999999999996
aa(lp363
F0.12540000000000001
aF0.1137
aF0.76090000000000002
aa(lp364
F0.095000000000000001
aF0.11459999999999999
aF0.79039999999999999
aa(lp365
F0.082900000000000001
aF0.13569999999999999
aF0.78139999999999998
aa(lp366
F0.070499999999999993
aF0.1479
aF0.78159999999999996
aasg14
(lp367
(lp368
F0.54990000000000006
aF0.055500000000000001
aF0.39460000000000001
aa(lp369
F0.37230000000000002
aF0.071900000000000006
aF0.55579999999999996
aa(lp370
F0.29189999999999999
aF0.077399999999999997
aF0.63070000000000004
aa(lp371
F0.23719999999999999
aF0.085300000000000001
aF0.67749999999999999
aa(lp372
F0.20169999999999999
aF0.096100000000000005
aF0.70220000000000005
aa(lp373
F0.1789
aF0.098900000000000002
aF0.72219999999999995
aa(lp374
F0.15670000000000001
aF0.11409999999999999
aF0.72919999999999996
aa(lp375
F0.1497
aF0.12620000000000001
aF0.72409999999999997
aa(lp376
F0.13289999999999999
aF0.1308
aF0.73629999999999995
aassS'2.12'
p377
(dp378
g3
(lp379
(lp380
F0.49030000000000001
aF0.058400000000000001
aF0.45129999999999998
aa(lp381
F0.30620000000000003
aF0.071499999999999994
aF0.62229999999999996
aa(lp382
F0.21099999999999999
aF0.083299999999999999
aF0.70569999999999999
aa(lp383
F0.17069999999999999
aF0.088099999999999998
aF0.74119999999999997
aa(lp384
F0.13400000000000001
aF0.094600000000000004
aF0.77139999999999997
aa(lp385
F0.1061
aF0.1096
aF0.7843
aa(lp386
F0.087099999999999997
aF0.1178
aF0.79510000000000003
aa(lp387
F0.075800000000000006
aF0.12540000000000001
aF0.79879999999999995
aa(lp388
F0.066400000000000001
aF0.13619999999999999
aF0.7974
aasg14
(lp389
(lp390
F0.51800000000000002
aF0.055500000000000001
aF0.42649999999999999
aa(lp391
F0.36030000000000001
aF0.065000000000000002
aF0.57469999999999999
aa(lp392
F0.27629999999999999
aF0.074999999999999997
aF0.64870000000000005
aa(lp393
F0.22570000000000001
aF0.079899999999999999
aF0.69440000000000002
aa(lp394
F0.18679999999999999
aF0.093399999999999997
aF0.7198
aa(lp395
F0.16320000000000001
aF0.10150000000000001
aF0.73529999999999995
aa(lp396
F0.1482
aF0.11070000000000001
aF0.74109999999999998
aa(lp397
F0.13600000000000001
aF0.1231
aF0.7409
aa(lp398
F0.11650000000000001
aF0.12770000000000001
aF0.75580000000000003
aassS'2.11'
p399
(dp400
g3
(lp401
(lp402
F0.45879999999999999
aF0.061499999999999999
aF0.47970000000000002
aa(lp403
F0.29260000000000003
aF0.072800000000000004
aF0.63460000000000005
aa(lp404
F0.19409999999999999
aF0.078799999999999995
aF0.72709999999999997
aa(lp405
F0.14649999999999999
aF0.083199999999999996
aF0.77029999999999998
aa(lp406
F0.127
aF0.095699999999999993
aF0.77729999999999999
aa(lp407
F0.098000000000000004
aF0.1081
aF0.79390000000000005
aa(lp408
F0.078899999999999998
aF0.1217
aF0.7994
aa(lp409
F0.066500000000000004
aF0.1285
aF0.80500000000000005
aa(lp410
F0.059299999999999999
aF0.14050000000000001
aF0.80020000000000002
aasg14
(lp411
(lp412
F0.50149999999999995
aF0.054800000000000001
aF0.44369999999999998
aa(lp413
F0.34050000000000002
aF0.063899999999999998
aF0.59560000000000002
aa(lp414
F0.26419999999999999
aF0.073300000000000004
aF0.66249999999999998
aa(lp415
F0.21829999999999999
aF0.081299999999999997
aF0.70040000000000002
aa(lp416
F0.1865
aF0.088700000000000001
aF0.7248
aa(lp417
F0.15579999999999999
aF0.097900000000000001
aF0.74629999999999996
aa(lp418
F0.14050000000000001
aF0.1173
aF0.74219999999999997
aa(lp419
F0.13020000000000001
aF0.1164
aF0.75339999999999996
aa(lp420
F0.1135
aF0.12989999999999999
aF0.75660000000000005
aassS'2.10'
p421
(dp422
g3
(lp423
(lp424
F0.43940000000000001
aF0.062300000000000001
aF0.49830000000000002
aa(lp425
F0.26100000000000001
aF0.073599999999999999
aF0.66539999999999999
aa(lp426
F0.1903
aF0.085099999999999995
aF0.72460000000000002
aa(lp427
F0.14099999999999999
aF0.084900000000000003
aF0.77410000000000001
aa(lp428
F0.112
aF0.092999999999999999
aF0.79500000000000004
aa(lp429
F0.087800000000000003
aF0.11219999999999999
aF0.80000000000000004
aa(lp430
F0.078700000000000006
aF0.1174
aF0.80389999999999995
aa(lp431
F0.0688
aF0.12809999999999999
aF0.80310000000000004
aa(lp432
F0.054300000000000001
aF0.13950000000000001
aF0.80620000000000003
aasg14
(lp433
(lp434
F0.48849999999999999
aF0.063
aF0.44850000000000001
aa(lp435
F0.32650000000000001
aF0.068099999999999994
aF0.60540000000000005
aa(lp436
F0.24440000000000001
aF0.079699999999999993
aF0.67589999999999995
aa(lp437
F0.20080000000000001
aF0.0848
aF0.71440000000000003
aa(lp438
F0.16339999999999999
aF0.092299999999999993
aF0.74429999999999996
aa(lp439
F0.14549999999999999
aF0.10390000000000001
aF0.75060000000000004
aa(lp440
F0.13020000000000001
aF0.1119
aF0.75790000000000002
aa(lp441
F0.1152
aF0.1166
aF0.76819999999999999
aa(lp442
F0.1077
aF0.13
aF0.76229999999999998
aassS'9.12'
p443
(dp444
g3
(lp445
(lp446
F0.57750000000000001
aF0.046100000000000002
aF0.37640000000000001
aa(lp447
F0.3997
aF0.062100000000000002
aF0.53820000000000001
aa(lp448
F0.30420000000000003
aF0.075800000000000006
aF0.62
aa(lp449
F0.23580000000000001
aF0.083699999999999997
aF0.68049999999999999
aa(lp450
F0.19420000000000001
aF0.092299999999999993
aF0.71350000000000002
aa(lp451
F0.16489999999999999
aF0.1042
aF0.73089999999999999
aa(lp452
F0.13059999999999999
aF0.1163
aF0.75309999999999999
aa(lp453
F0.1143
aF0.12640000000000001
aF0.75929999999999997
aa(lp454
F0.094299999999999995
aF0.1431
aF0.76259999999999994
aasg14
(lp455
(lp456
F0.61080000000000001
aF0.042799999999999998
aF0.34639999999999999
aa(lp457
F0.44309999999999999
aF0.055800000000000002
aF0.50109999999999999
aa(lp458
F0.3543
aF0.069000000000000006
aF0.57669999999999999
aa(lp459
F0.29389999999999999
aF0.072300000000000003
aF0.63380000000000003
aa(lp460
F0.2465
aF0.0843
aF0.66920000000000002
aa(lp461
F0.2117
aF0.097299999999999998
aF0.69099999999999995
aa(lp462
F0.1928
aF0.11509999999999999
aF0.69210000000000005
aa(lp463
F0.16969999999999999
aF0.12180000000000001
aF0.70850000000000002
aa(lp464
F0.1603
aF0.1295
aF0.71020000000000005
aassS'11.13'
p465
(dp466
g3
(lp467
(lp468
F0.62419999999999998
aF0.037600000000000001
aF0.3382
aa(lp469
F0.4612
aF0.051299999999999998
aF0.48749999999999999
aa(lp470
F0.3533
aF0.070599999999999996
aF0.57609999999999995
aa(lp471
F0.29799999999999999
aF0.080799999999999997
aF0.62119999999999997
aa(lp472
F0.2437
aF0.087800000000000003
aF0.66849999999999998
aa(lp473
F0.20530000000000001
aF0.1003
aF0.69440000000000002
aa(lp474
F0.18329999999999999
aF0.1129
aF0.70379999999999998
aa(lp475
F0.1522
aF0.1275
aF0.72030000000000005
aa(lp476
F0.13320000000000001
aF0.14149999999999999
aF0.72529999999999994
aasg14
(lp477
(lp478
F0.65459999999999996
aF0.037999999999999999
aF0.30740000000000001
aa(lp479
F0.4965
aF0.051700000000000003
aF0.45179999999999998
aa(lp480
F0.40560000000000002
aF0.059200000000000003
aF0.53520000000000001
aa(lp481
F0.3488
aF0.074499999999999997
aF0.57669999999999999
aa(lp482
F0.29320000000000002
aF0.081000000000000003
aF0.62580000000000002
aa(lp483
F0.25719999999999998
aF0.10000000000000001
aF0.64280000000000004
aa(lp484
F0.23619999999999999
aF0.1104
aF0.65339999999999998
aa(lp485
F0.2094
aF0.1143
aF0.67630000000000001
aa(lp486
F0.18959999999999999
aF0.12590000000000001
aF0.6845
aassS'11.11'
p487
(dp488
g3
(lp489
(lp490
F0.80400000000000005
aF0.012200000000000001
aF0.18379999999999999
aa(lp491
F0.65629999999999999
aF0.024400000000000002
aF0.31929999999999997
aa(lp492
F0.55659999999999998
aF0.034099999999999998
aF0.4093
aa(lp493
F0.47989999999999999
aF0.0407
aF0.47939999999999999
aa(lp494
F0.41649999999999998
aF0.053100000000000001
aF0.53039999999999998
aa(lp495
F0.37330000000000002
aF0.065600000000000006
aF0.56110000000000004
aa(lp496
F0.34399999999999997
aF0.077700000000000005
aF0.57830000000000004
aa(lp497
F0.31130000000000002
aF0.0848
aF0.60389999999999999
aa(lp498
F0.2787
aF0.096600000000000005
aF0.62470000000000003
aasg14
(lp499
(lp500
F0.81589999999999996
aF0.0109
aF0.17319999999999999
aa(lp501
F0.68799999999999994
aF0.020400000000000001
aF0.29160000000000003
aa(lp502
F0.58250000000000002
aF0.029999999999999999
aF0.38750000000000001
aa(lp503
F0.50409999999999999
aF0.036900000000000002
aF0.45900000000000002
aa(lp504
F0.44259999999999999
aF0.051999999999999998
aF0.50539999999999996
aa(lp505
F0.4118
aF0.055599999999999997
aF0.53259999999999996
aa(lp506
F0.37640000000000001
aF0.063799999999999996
aF0.55979999999999996
aa(lp507
F0.3412
aF0.079899999999999999
aF0.57889999999999997
aa(lp508
F0.32079999999999997
aF0.089599999999999999
aF0.58960000000000001
aassS'9.14'
p509
(dp510
g3
(lp511
(lp512
F0.62070000000000003
aF0.043400000000000001
aF0.33589999999999998
aa(lp513
F0.43830000000000002
aF0.0579
aF0.50380000000000003
aa(lp514
F0.33029999999999998
aF0.072999999999999995
aF0.59670000000000001
aa(lp515
F0.25979999999999998
aF0.086099999999999996
aF0.65410000000000001
aa(lp516
F0.20530000000000001
aF0.094500000000000001
aF0.70020000000000004
aa(lp517
F0.17469999999999999
aF0.1022
aF0.72309999999999997
aa(lp518
F0.14369999999999999
aF0.1216
aF0.73470000000000002
aa(lp519
F0.1258
aF0.12759999999999999
aF0.74660000000000004
aa(lp520
F0.1124
aF0.1434
aF0.74419999999999997
aasg14
(lp521
(lp522
F0.64539999999999997
aF0.0402
aF0.31440000000000001
aa(lp523
F0.46579999999999999
aF0.055899999999999998
aF0.4783
aa(lp524
F0.37969999999999998
aF0.071199999999999999
aF0.54910000000000003
aa(lp525
F0.31380000000000002
aF0.079500000000000001
aF0.60670000000000002
aa(lp526
F0.26869999999999999
aF0.082000000000000003
aF0.64929999999999999
aa(lp527
F0.2341
aF0.097900000000000001
aF0.66800000000000004
aa(lp528
F0.20880000000000001
aF0.1109
aF0.68030000000000002
aa(lp529
F0.1981
aF0.11559999999999999
aF0.68630000000000002
aa(lp530
F0.1772
aF0.13020000000000001
aF0.69259999999999999
aassS'4.11'
p531
(dp532
g3
(lp533
(lp534
F0.48509999999999998
aF0.066500000000000004
aF0.44840000000000002
aa(lp535
F0.29920000000000002
aF0.070999999999999994
aF0.62980000000000003
aa(lp536
F0.2132
aF0.079899999999999999
aF0.70689999999999997
aa(lp537
F0.16109999999999999
aF0.092899999999999996
aF0.746
aa(lp538
F0.12839999999999999
aF0.097900000000000001
aF0.77370000000000005
aa(lp539
F0.1067
aF0.1119
aF0.78139999999999998
aa(lp540
F0.0877
aF0.1208
aF0.79149999999999998
aa(lp541
F0.079000000000000001
aF0.13450000000000001
aF0.78649999999999998
aa(lp542
F0.0625
aF0.13980000000000001
aF0.79769999999999996
aasg14
(lp543
(lp544
F0.52239999999999998
aF0.058000000000000003
aF0.41959999999999997
aa(lp545
F0.35849999999999999
aF0.067199999999999996
aF0.57430000000000003
aa(lp546
F0.26869999999999999
aF0.078899999999999998
aF0.65239999999999998
aa(lp547
F0.21740000000000001
aF0.087900000000000006
aF0.69469999999999998
aa(lp548
F0.19059999999999999
aF0.091399999999999995
aF0.71799999999999997
aa(lp549
F0.15509999999999999
aF0.1002
aF0.74470000000000003
aa(lp550
F0.1464
aF0.1125
aF0.74109999999999998
aa(lp551
F0.1303
aF0.11509999999999999
aF0.75460000000000005
aa(lp552
F0.11899999999999999
aF0.1308
aF0.75019999999999998
aassS'4.10'
p553
(dp554
g3
(lp555
(lp556
F0.46210000000000001
aF0.067100000000000007
aF0.4708
aa(lp557
F0.2893
aF0.068099999999999994
aF0.64259999999999995
aa(lp558
F0.1988
aF0.086199999999999999
aF0.71499999999999997
aa(lp559
F0.15029999999999999
aF0.0935
aF0.75619999999999998
aa(lp560
F0.1211
aF0.098599999999999993
aF0.78029999999999999
aa(lp561
F0.098299999999999998
aF0.1096
aF0.79210000000000003
aa(lp562
F0.078700000000000006
aF0.1162
aF0.80510000000000004
aa(lp563
F0.068199999999999997
aF0.1234
aF0.80840000000000001
aa(lp564
F0.058500000000000003
aF0.14030000000000001
aF0.80120000000000002
aasg14
(lp565
(lp566
F0.49149999999999999
aF0.060400000000000002
aF0.4481
aa(lp567
F0.33539999999999998
aF0.069000000000000006
aF0.59560000000000002
aa(lp568
F0.2535
aF0.074700000000000003
aF0.67179999999999995
aa(lp569
F0.20349999999999999
aF0.088200000000000001
aF0.70830000000000004
aa(lp570
F0.1774
aF0.092100000000000001
aF0.73050000000000004
aa(lp571
F0.15609999999999999
aF0.1033
aF0.74060000000000004
aa(lp572
F0.13070000000000001
aF0.1128
aF0.75649999999999995
aa(lp573
F0.11559999999999999
aF0.1249
aF0.75949999999999995
aa(lp574
F0.1152
aF0.125
aF0.75980000000000003
aassS'4.13'
p575
(dp576
g3
(lp577
(lp578
F0.52829999999999999
aF0.060100000000000001
aF0.41160000000000002
aa(lp579
F0.34449999999999997
aF0.074899999999999994
aF0.5806
aa(lp580
F0.25530000000000003
aF0.082100000000000006
aF0.66259999999999997
aa(lp581
F0.1885
aF0.092200000000000004
aF0.71930000000000005
aa(lp582
F0.15079999999999999
aF0.10199999999999999
aF0.74719999999999998
aa(lp583
F0.12620000000000001
aF0.1086
aF0.76519999999999999
aa(lp584
F0.10199999999999999
aF0.12620000000000001
aF0.77180000000000004
aa(lp585
F0.083599999999999994
aF0.12770000000000001
aF0.78869999999999996
aa(lp586
F0.074999999999999997
aF0.14199999999999999
aF0.78300000000000003
aasg14
(lp587
(lp588
F0.55940000000000001
aF0.063
aF0.37759999999999999
aa(lp589
F0.39589999999999997
aF0.068900000000000003
aF0.53520000000000001
aa(lp590
F0.29770000000000002
aF0.073400000000000007
aF0.62890000000000001
aa(lp591
F0.25169999999999998
aF0.089999999999999997
aF0.6583
aa(lp592
F0.20549999999999999
aF0.096799999999999997
aF0.69769999999999999
aa(lp593
F0.18590000000000001
aF0.1065
aF0.70760000000000001
aa(lp594
F0.16619999999999999
aF0.11799999999999999
aF0.71579999999999999
aa(lp595
F0.1411
aF0.1212
aF0.73770000000000002
aa(lp596
F0.13600000000000001
aF0.13350000000000001
aF0.73050000000000004
aassS'4.12'
p597
(dp598
g3
(lp599
(lp600
F0.49880000000000002
aF0.061199999999999997
aF0.44
aa(lp601
F0.32379999999999998
aF0.066600000000000006
aF0.60960000000000003
aa(lp602
F0.2288
aF0.083000000000000004
aF0.68820000000000003
aa(lp603
F0.1719
aF0.095399999999999999
aF0.73270000000000002
aa(lp604
F0.1386
aF0.1022
aF0.75919999999999999
aa(lp605
F0.10589999999999999
aF0.1085
aF0.78559999999999997
aa(lp606
F0.092799999999999994
aF0.12470000000000001
aF0.78249999999999997
aa(lp607
F0.079299999999999995
aF0.13220000000000001
aF0.78849999999999998
aa(lp608
F0.066100000000000006
aF0.1424
aF0.79149999999999998
aasg14
(lp609
(lp610
F0.5423
aF0.057200000000000001
aF0.40050000000000002
aa(lp611
F0.36359999999999998
aF0.063399999999999998
aF0.57299999999999995
aa(lp612
F0.28589999999999999
aF0.078299999999999995
aF0.63580000000000003
aa(lp613
F0.2336
aF0.083199999999999996
aF0.68320000000000003
aa(lp614
F0.2016
aF0.098100000000000007
aF0.70030000000000003
aa(lp615
F0.1734
aF0.107
aF0.71960000000000002
aa(lp616
F0.1477
aF0.1108
aF0.74150000000000005
aa(lp617
F0.1343
aF0.1255
aF0.74019999999999997
aa(lp618
F0.1149
aF0.13769999999999999
aF0.74739999999999995
aassS'4.14'
p619
(dp620
g3
(lp621
(lp622
F0.57210000000000005
aF0.058500000000000003
aF0.36940000000000001
aa(lp623
F0.38150000000000001
aF0.072999999999999995
aF0.54549999999999998
aa(lp624
F0.26989999999999997
aF0.085900000000000004
aF0.64419999999999999
aa(lp625
F0.21290000000000001
aF0.097500000000000003
aF0.68959999999999999
aa(lp626
F0.18659999999999999
aF0.1051
aF0.70830000000000004
aa(lp627
F0.13700000000000001
aF0.1144
aF0.74860000000000004
aa(lp628
F0.1135
aF0.12280000000000001
aF0.76370000000000005
aa(lp629
F0.1017
aF0.13550000000000001
aF0.76280000000000003
aa(lp630
F0.087800000000000003
aF0.1492
aF0.76300000000000001
aasg14
(lp631
(lp632
F0.59709999999999996
aF0.0516
aF0.3513
aa(lp633
F0.42909999999999998
aF0.071499999999999994
aF0.49940000000000001
aa(lp634
F0.33989999999999998
aF0.078799999999999995
aF0.58130000000000004
aa(lp635
F0.2661
aF0.083900000000000002
aF0.65000000000000002
aa(lp636
F0.2215
aF0.098699999999999996
aF0.67979999999999996
aa(lp637
F0.20530000000000001
aF0.1135
aF0.68120000000000003
aa(lp638
F0.18010000000000001
aF0.1154
aF0.70450000000000002
aa(lp639
F0.16259999999999999
aF0.12839999999999999
aF0.70899999999999996
aa(lp640
F0.1487
aF0.13100000000000001
aF0.72030000000000005
aassS'3.10'
p641
(dp642
g3
(lp643
(lp644
F0.44169999999999998
aF0.067000000000000004
aF0.49130000000000001
aa(lp645
F0.28060000000000002
aF0.075999999999999998
aF0.64339999999999997
aa(lp646
F0.1933
aF0.079899999999999999
aF0.7268
aa(lp647
F0.14979999999999999
aF0.0877
aF0.76249999999999996
aa(lp648
F0.1154
aF0.095000000000000001
aF0.78959999999999997
aa(lp649
F0.095299999999999996
aF0.1125
aF0.79220000000000002
aa(lp650
F0.076499999999999999
aF0.1231
aF0.8004
aa(lp651
F0.066000000000000003
aF0.12920000000000001
aF0.80479999999999996
aa(lp652
F0.0533
aF0.13569999999999999
aF0.81100000000000005
aasg14
(lp653
(lp654
F0.48180000000000001
aF0.061600000000000002
aF0.45660000000000001
aa(lp655
F0.32179999999999997
aF0.066400000000000001
aF0.61180000000000001
aa(lp656
F0.2475
aF0.076600000000000001
aF0.67589999999999995
aa(lp657
F0.1983
aF0.086999999999999994
aF0.7147
aa(lp658
F0.17299999999999999
aF0.094500000000000001
aF0.73250000000000004
aa(lp659
F0.14990000000000001
aF0.098400000000000001
aF0.75170000000000003
aa(lp660
F0.12959999999999999
aF0.1152
aF0.75519999999999998
aa(lp661
F0.1095
aF0.12429999999999999
aF0.76619999999999999
aa(lp662
F0.1106
aF0.1318
aF0.75760000000000005
aassS'3.11'
p663
(dp664
g3
(lp665
(lp666
F0.46850000000000003
aF0.066400000000000001
aF0.46510000000000001
aa(lp667
F0.2833
aF0.071800000000000003
aF0.64490000000000003
aa(lp668
F0.20730000000000001
aF0.077399999999999997
aF0.71530000000000005
aa(lp669
F0.16039999999999999
aF0.081699999999999995
aF0.75790000000000002
aa(lp670
F0.1255
aF0.098900000000000002
aF0.77559999999999996
aa(lp671
F0.105
aF0.105
aF0.79000000000000004
aa(lp672
F0.085900000000000004
aF0.11650000000000001
aF0.79759999999999998
aa(lp673
F0.068400000000000002
aF0.13289999999999999
aF0.79869999999999997
aa(lp674
F0.063
aF0.1391
aF0.79790000000000005
aasg14
(lp675
(lp676
F0.499
aF0.0591
aF0.44190000000000002
aa(lp677
F0.34760000000000002
aF0.067599999999999993
aF0.58479999999999999
aa(lp678
F0.26479999999999998
aF0.073099999999999998
aF0.66210000000000002
aa(lp679
F0.21870000000000001
aF0.079600000000000004
aF0.70169999999999999
aa(lp680
F0.18290000000000001
aF0.090200000000000002
aF0.72689999999999999
aa(lp681
F0.15939999999999999
aF0.1003
aF0.74029999999999996
aa(lp682
F0.13969999999999999
aF0.11219999999999999
aF0.74809999999999999
aa(lp683
F0.12139999999999999
aF0.1193
aF0.75929999999999997
aa(lp684
F0.11219999999999999
aF0.13109999999999999
aF0.75670000000000004
aassS'3.12'
p685
(dp686
g3
(lp687
(lp688
F0.49270000000000003
aF0.062700000000000006
aF0.4446
aa(lp689
F0.30399999999999999
aF0.070599999999999996
aF0.62539999999999996
aa(lp690
F0.22070000000000001
aF0.080199999999999994
aF0.69910000000000005
aa(lp691
F0.1767
aF0.089399999999999993
aF0.7339
aa(lp692
F0.13159999999999999
aF0.098400000000000001
aF0.77000000000000002
aa(lp693
F0.10920000000000001
aF0.1143
aF0.77649999999999997
aa(lp694
F0.088099999999999998
aF0.11890000000000001
aF0.79300000000000004
aa(lp695
F0.073099999999999998
aF0.1366
aF0.7903
aa(lp696
F0.067199999999999996
aF0.13830000000000001
aF0.79449999999999998
aasg14
(lp697
(lp698
F0.53259999999999996
aF0.060499999999999998
aF0.40689999999999998
aa(lp699
F0.36130000000000001
aF0.066100000000000006
aF0.5726
aa(lp700
F0.27900000000000003
aF0.077899999999999997
aF0.6431
aa(lp701
F0.22689999999999999
aF0.082900000000000001
aF0.69020000000000004
aa(lp702
F0.186
aF0.092799999999999994
aF0.72119999999999995
aa(lp703
F0.17349999999999999
aF0.099900000000000003
aF0.72660000000000002
aa(lp704
F0.14849999999999999
aF0.1118
aF0.73970000000000002
aa(lp705
F0.1401
aF0.11990000000000001
aF0.73999999999999999
aa(lp706
F0.127
aF0.13200000000000001
aF0.74099999999999999
aassS'3.13'
p707
(dp708
g3
(lp709
(lp710
F0.52239999999999998
aF0.061499999999999999
aF0.41610000000000003
aa(lp711
F0.34539999999999998
aF0.074399999999999994
aF0.58020000000000005
aa(lp712
F0.24129999999999999
aF0.083699999999999997
aF0.67500000000000004
aa(lp713
F0.18659999999999999
aF0.094100000000000003
aF0.71930000000000005
aa(lp714
F0.13669999999999999
aF0.1046
aF0.75870000000000004
aa(lp715
F0.1205
aF0.1129
aF0.76659999999999995
aa(lp716
F0.095699999999999993
aF0.11509999999999999
aF0.78920000000000001
aa(lp717
F0.083199999999999996
aF0.13320000000000001
aF0.78359999999999996
aa(lp718
F0.070699999999999999
aF0.13830000000000001
aF0.79100000000000004
aasg14
(lp719
(lp720
F0.5605
aF0.058299999999999998
aF0.38119999999999998
aa(lp721
F0.38240000000000002
aF0.0688
aF0.54879999999999995
aa(lp722
F0.30059999999999998
aF0.077299999999999994
aF0.62209999999999999
aa(lp723
F0.23719999999999999
aF0.086099999999999996
aF0.67669999999999997
aa(lp724
F0.20619999999999999
aF0.096299999999999997
aF0.69750000000000001
aa(lp725
F0.18149999999999999
aF0.104
aF0.71450000000000002
aa(lp726
F0.1651
aF0.11360000000000001
aF0.72130000000000005
aa(lp727
F0.1472
aF0.1239
aF0.72889999999999999
aa(lp728
F0.1283
aF0.1303
aF0.74139999999999995
aassS'3.14'
p729
(dp730
g3
(lp731
(lp732
F0.56269999999999998
aF0.0562
aF0.38109999999999999
aa(lp733
F0.3755
aF0.076100000000000001
aF0.5484
aa(lp734
F0.2702
aF0.083299999999999999
aF0.64649999999999996
aa(lp735
F0.2077
aF0.0969
aF0.69540000000000002
aa(lp736
F0.16719999999999999
aF0.1014
aF0.73140000000000005
aa(lp737
F0.1356
aF0.1212
aF0.74319999999999997
aa(lp738
F0.1196
aF0.127
aF0.75339999999999996
aa(lp739
F0.098900000000000002
aF0.13550000000000001
aF0.76559999999999995
aa(lp740
F0.087499999999999994
aF0.14960000000000001
aF0.76290000000000002
aasg14
(lp741
(lp742
F0.60409999999999997
aF0.053900000000000003
aF0.34200000000000003
aa(lp743
F0.4264
aF0.066100000000000006
aF0.50749999999999995
aa(lp744
F0.31469999999999998
aF0.084000000000000005
aF0.60129999999999995
aa(lp745
F0.2722
aF0.083099999999999993
aF0.64470000000000005
aa(lp746
F0.22720000000000001
aF0.099599999999999994
aF0.67320000000000002
aa(lp747
F0.2087
aF0.10580000000000001
aF0.6855
aa(lp748
F0.1734
aF0.1179
aF0.7087
aa(lp749
F0.15559999999999999
aF0.13059999999999999
aF0.71379999999999999
aa(lp750
F0.1469
aF0.13619999999999999
aF0.71689999999999998
aassS'3.6'
p751
(dp752
g3
(lp753
(lp754
F0.37430000000000002
aF0.075600000000000001
aF0.55010000000000003
aa(lp755
F0.24260000000000001
aF0.069099999999999995
aF0.68830000000000002
aa(lp756
F0.17230000000000001
aF0.078
aF0.74970000000000003
aa(lp757
F0.1426
aF0.085300000000000001
aF0.77210000000000001
aa(lp758
F0.10730000000000001
aF0.097500000000000003
aF0.79520000000000002
aa(lp759
F0.091999999999999998
aF0.1028
aF0.80520000000000003
aa(lp760
F0.073999999999999996
aF0.1129
aF0.81310000000000004
aa(lp761
F0.070199999999999999
aF0.1258
aF0.80400000000000005
aa(lp762
F0.058700000000000002
aF0.12709999999999999
aF0.81420000000000003
aasg14
(lp763
(lp764
F0.4284
aF0.067799999999999999
aF0.50380000000000003
aa(lp765
F0.29709999999999998
aF0.064799999999999996
aF0.6381
aa(lp766
F0.22919999999999999
aF0.073599999999999999
aF0.69720000000000004
aa(lp767
F0.19550000000000001
aF0.0785
aF0.72599999999999998
aa(lp768
F0.16789999999999999
aF0.088200000000000001
aF0.74390000000000001
aa(lp769
F0.13800000000000001
aF0.096699999999999994
aF0.76529999999999998
aa(lp770
F0.12740000000000001
aF0.1075
aF0.7651
aa(lp771
F0.1119
aF0.1149
aF0.7732
aa(lp772
F0.1032
aF0.1246
aF0.7722
aassS'3.7'
p773
(dp774
g3
(lp775
(lp776
F0.39129999999999998
aF0.077600000000000002
aF0.53110000000000002
aa(lp777
F0.2424
aF0.075499999999999998
aF0.68210000000000004
aa(lp778
F0.17449999999999999
aF0.078399999999999997
aF0.74709999999999999
aa(lp779
F0.1394
aF0.079000000000000001
aF0.78159999999999996
aa(lp780
F0.10929999999999999
aF0.1004
aF0.7903
aa(lp781
F0.091399999999999995
aF0.1036
aF0.80500000000000005
aa(lp782
F0.071599999999999997
aF0.1105
aF0.81789999999999996
aa(lp783
F0.066100000000000006
aF0.12470000000000001
aF0.80920000000000003
aa(lp784
F0.056899999999999999
aF0.1328
aF0.81030000000000002
aasg14
(lp785
(lp786
F0.43319999999999997
aF0.070900000000000005
aF0.49590000000000001
aa(lp787
F0.30480000000000002
aF0.068699999999999997
aF0.62649999999999995
aa(lp788
F0.22750000000000001
aF0.0746
aF0.69789999999999996
aa(lp789
F0.18340000000000001
aF0.0814
aF0.73519999999999996
aa(lp790
F0.16239999999999999
aF0.089999999999999997
aF0.74760000000000004
aa(lp791
F0.1363
aF0.094299999999999995
aF0.76939999999999997
aa(lp792
F0.13150000000000001
aF0.1069
aF0.76160000000000005
aa(lp793
F0.1118
aF0.11890000000000001
aF0.76929999999999998
aa(lp794
F0.1013
aF0.1303
aF0.76839999999999997
aassS'3.4'
p795
(dp796
g3
(lp797
(lp798
F0.3775
aF0.0809
aF0.54159999999999997
aa(lp799
F0.24249999999999999
aF0.074899999999999994
aF0.68259999999999998
aa(lp800
F0.17680000000000001
aF0.085000000000000006
aF0.73819999999999997
aa(lp801
F0.13450000000000001
aF0.0906
aF0.77490000000000003
aa(lp802
F0.1119
aF0.091399999999999995
aF0.79669999999999996
aa(lp803
F0.1002
aF0.1101
aF0.78969999999999996
aa(lp804
F0.081000000000000003
aF0.1085
aF0.8105
aa(lp805
F0.074200000000000002
aF0.1246
aF0.80120000000000002
aa(lp806
F0.063500000000000001
aF0.13950000000000001
aF0.79700000000000004
aasg14
(lp807
(lp808
F0.40510000000000002
aF0.072800000000000004
aF0.52210000000000001
aa(lp809
F0.28839999999999999
aF0.066500000000000004
aF0.64510000000000001
aa(lp810
F0.23000000000000001
aF0.071099999999999997
aF0.69889999999999997
aa(lp811
F0.1867
aF0.076999999999999999
aF0.73629999999999995
aa(lp812
F0.16370000000000001
aF0.088900000000000007
aF0.74739999999999995
aa(lp813
F0.1406
aF0.0969
aF0.76249999999999996
aa(lp814
F0.1318
aF0.10249999999999999
aF0.76570000000000005
aa(lp815
F0.11600000000000001
aF0.1191
aF0.76490000000000002
aa(lp816
F0.10879999999999999
aF0.13339999999999999
aF0.75780000000000003
aassS'2.8'
p817
(dp818
g3
(lp819
(lp820
F0.39560000000000001
aF0.067299999999999999
aF0.53710000000000002
aa(lp821
F0.24179999999999999
aF0.072900000000000006
aF0.68530000000000002
aa(lp822
F0.17219999999999999
aF0.075499999999999998
aF0.75229999999999997
aa(lp823
F0.1234
aF0.092399999999999996
aF0.78420000000000001
aa(lp824
F0.0998
aF0.090499999999999997
aF0.80969999999999998
aa(lp825
F0.081299999999999997
aF0.099500000000000005
aF0.81920000000000004
aa(lp826
F0.069900000000000004
aF0.114
aF0.81610000000000005
aa(lp827
F0.056800000000000003
aF0.1258
aF0.81740000000000002
aa(lp828
F0.047399999999999998
aF0.13389999999999999
aF0.81869999999999998
aasg14
(lp829
(lp830
F0.43440000000000001
aF0.064899999999999999
aF0.50070000000000003
aa(lp831
F0.29160000000000003
aF0.067100000000000007
aF0.64129999999999998
aa(lp832
F0.22459999999999999
aF0.074300000000000005
aF0.70109999999999995
aa(lp833
F0.187
aF0.083299999999999999
aF0.72970000000000002
aa(lp834
F0.1603
aF0.0911
aF0.74860000000000004
aa(lp835
F0.1391
aF0.097500000000000003
aF0.76339999999999997
aa(lp836
F0.1221
aF0.10349999999999999
aF0.77439999999999998
aa(lp837
F0.114
aF0.1188
aF0.76719999999999999
aa(lp838
F0.093399999999999997
aF0.12709999999999999
aF0.77949999999999997
aassS'3.3'
p839
(dp840
g3
(lp841
(lp842
F0.60750000000000004
aF0.022499999999999999
aF0.37
aa(lp843
F0.43630000000000002
aF0.0275
aF0.53620000000000001
aa(lp844
F0.3488
aF0.038600000000000002
aF0.61260000000000003
aa(lp845
F0.28860000000000002
aF0.051799999999999999
aF0.65959999999999996
aa(lp846
F0.27239999999999998
aF0.057799999999999997
aF0.66979999999999995
aa(lp847
F0.25290000000000001
aF0.067900000000000002
aF0.67920000000000003
aa(lp848
F0.23000000000000001
aF0.081900000000000001
aF0.68810000000000004
aa(lp849
F0.21959999999999999
aF0.092700000000000005
aF0.68769999999999998
aa(lp850
F0.2132
aF0.098900000000000002
aF0.68789999999999996
aasg14
(lp851
(lp852
F0.63380000000000003
aF0.020199999999999999
aF0.34599999999999997
aa(lp853
F0.46639999999999998
aF0.028000000000000001
aF0.50560000000000005
aa(lp854
F0.3876
aF0.037600000000000001
aF0.57479999999999998
aa(lp855
F0.33429999999999999
aF0.0458
aF0.61990000000000001
aa(lp856
F0.31109999999999999
aF0.051799999999999999
aF0.6371
aa(lp857
F0.28389999999999999
aF0.066799999999999998
aF0.64929999999999999
aa(lp858
F0.27679999999999999
aF0.073800000000000004
aF0.64939999999999998
aa(lp859
F0.2626
aF0.081799999999999998
aF0.65559999999999996
aa(lp860
F0.2492
aF0.089999999999999997
aF0.66080000000000005
aassS'2.3'
p861
(dp862
g3
(lp863
(lp864
F0.34749999999999998
aF0.077100000000000002
aF0.57540000000000002
aa(lp865
F0.21820000000000001
aF0.070199999999999999
aF0.71160000000000001
aa(lp866
F0.1535
aF0.078700000000000006
aF0.76780000000000004
aa(lp867
F0.1186
aF0.082100000000000006
aF0.79930000000000001
aa(lp868
F0.097100000000000006
aF0.092700000000000005
aF0.81020000000000003
aa(lp869
F0.089399999999999993
aF0.098100000000000007
aF0.8125
aa(lp870
F0.072700000000000001
aF0.1085
aF0.81879999999999997
aa(lp871
F0.063700000000000007
aF0.123
aF0.81330000000000002
aa(lp872
F0.054199999999999998
aF0.13120000000000001
aF0.81459999999999999
aasg14
(lp873
(lp874
F0.39800000000000002
aF0.069199999999999998
aF0.53280000000000005
aa(lp875
F0.2666
aF0.067100000000000007
aF0.6663
aa(lp876
F0.21260000000000001
aF0.061199999999999997
aF0.72619999999999996
aa(lp877
F0.17280000000000001
aF0.075700000000000003
aF0.75149999999999995
aa(lp878
F0.15509999999999999
aF0.084699999999999998
aF0.76019999999999999
aa(lp879
F0.1318
aF0.091200000000000003
aF0.77700000000000002
aa(lp880
F0.12039999999999999
aF0.1067
aF0.77290000000000003
aa(lp881
F0.11509999999999999
aF0.1124
aF0.77249999999999996
aa(lp882
F0.1032
aF0.1225
aF0.77429999999999999
aassS'2.2'
p883
(dp884
g3
(lp885
(lp886
F0.58130000000000004
aF0.023599999999999999
aF0.39510000000000001
aa(lp887
F0.41260000000000002
aF0.0276
aF0.55979999999999996
aa(lp888
F0.3251
aF0.038699999999999998
aF0.63619999999999999
aa(lp889
F0.28399999999999997
aF0.046699999999999998
aF0.66930000000000001
aa(lp890
F0.26800000000000002
aF0.063399999999999998
aF0.66859999999999997
aa(lp891
F0.24540000000000001
aF0.066900000000000001
aF0.68769999999999998
aa(lp892
F0.2351
aF0.082600000000000007
aF0.68230000000000002
aa(lp893
F0.21729999999999999
aF0.091200000000000003
aF0.6915
aa(lp894
F0.21820000000000001
aF0.097600000000000006
aF0.68420000000000003
aasg14
(lp895
(lp896
F0.60919999999999996
aF0.0252
aF0.36559999999999998
aa(lp897
F0.45090000000000002
aF0.028899999999999999
aF0.5202
aa(lp898
F0.37230000000000002
aF0.038699999999999998
aF0.58899999999999997
aa(lp899
F0.32940000000000003
aF0.043099999999999999
aF0.62749999999999995
aa(lp900
F0.31169999999999998
aF0.060400000000000002
aF0.62790000000000001
aa(lp901
F0.28460000000000002
aF0.067299999999999999
aF0.64810000000000001
aa(lp902
F0.27479999999999999
aF0.0717
aF0.65349999999999997
aa(lp903
F0.25929999999999997
aF0.084500000000000006
aF0.65620000000000001
aa(lp904
F0.24790000000000001
aF0.091899999999999996
aF0.66020000000000001
aassS'2.7'
p905
(dp906
g3
(lp907
(lp908
F0.37
aF0.074200000000000002
aF0.55579999999999996
aa(lp909
F0.22259999999999999
aF0.073700000000000002
aF0.70369999999999999
aa(lp910
F0.1694
aF0.078399999999999997
aF0.75219999999999998
aa(lp911
F0.12559999999999999
aF0.081699999999999995
aF0.79269999999999996
aa(lp912
F0.098000000000000004
aF0.093899999999999997
aF0.80810000000000004
aa(lp913
F0.076499999999999999
aF0.098799999999999999
aF0.82469999999999999
aa(lp914
F0.068500000000000005
aF0.1086
aF0.82289999999999996
aa(lp915
F0.056599999999999998
aF0.12039999999999999
aF0.82299999999999995
aa(lp916
F0.0499
aF0.12859999999999999
aF0.82150000000000001
aasg14
(lp917
(lp918
F0.40970000000000001
aF0.073300000000000004
aF0.51700000000000002
aa(lp919
F0.28520000000000001
aF0.066299999999999998
aF0.64849999999999997
aa(lp920
F0.2127
aF0.072999999999999995
aF0.71430000000000005
aa(lp921
F0.1726
aF0.076700000000000004
aF0.75070000000000003
aa(lp922
F0.1507
aF0.088999999999999996
aF0.76029999999999998
aa(lp923
F0.13370000000000001
aF0.10050000000000001
aF0.76580000000000004
aa(lp924
F0.1205
aF0.10829999999999999
aF0.7712
aa(lp925
F0.1134
aF0.1142
aF0.77239999999999998
aa(lp926
F0.096500000000000002
aF0.1211
aF0.78239999999999998
aassS'2.6'
p927
(dp928
g3
(lp929
(lp930
F0.36870000000000003
aF0.076799999999999993
aF0.55449999999999999
aa(lp931
F0.2324
aF0.072999999999999995
aF0.6946
aa(lp932
F0.159
aF0.078200000000000006
aF0.76280000000000003
aa(lp933
F0.122
aF0.082900000000000001
aF0.79510000000000003
aa(lp934
F0.10349999999999999
aF0.092399999999999996
aF0.80410000000000004
aa(lp935
F0.088200000000000001
aF0.1002
aF0.81159999999999999
aa(lp936
F0.066500000000000004
aF0.11169999999999999
aF0.82179999999999997
aa(lp937
F0.0596
aF0.1244
aF0.81599999999999995
aa(lp938
F0.051999999999999998
aF0.13469999999999999
aF0.81330000000000002
aasg14
(lp939
(lp940
F0.4143
aF0.073200000000000001
aF0.51249999999999996
aa(lp941
F0.2823
aF0.070499999999999993
aF0.6472
aa(lp942
F0.21190000000000001
aF0.073999999999999996
aF0.71409999999999996
aa(lp943
F0.1779
aF0.078700000000000006
aF0.74339999999999995
aa(lp944
F0.156
aF0.092100000000000001
aF0.75190000000000001
aa(lp945
F0.13750000000000001
aF0.095699999999999993
aF0.76680000000000004
aa(lp946
F0.1177
aF0.1062
aF0.77610000000000001
aa(lp947
F0.1084
aF0.1167
aF0.77490000000000003
aa(lp948
F0.099500000000000005
aF0.1183
aF0.78220000000000001
aassS'3.8'
p949
(dp950
g3
(lp951
(lp952
F0.39439999999999997
aF0.075800000000000006
aF0.52980000000000005
aa(lp953
F0.23860000000000001
aF0.073200000000000001
aF0.68820000000000003
aa(lp954
F0.17680000000000001
aF0.082100000000000006
aF0.74109999999999998
aa(lp955
F0.1353
aF0.0906
aF0.77410000000000001
aa(lp956
F0.099299999999999999
aF0.096799999999999997
aF0.80389999999999995
aa(lp957
F0.081299999999999997
aF0.1036
aF0.81510000000000005
aa(lp958
F0.066600000000000006
aF0.1211
aF0.81230000000000002
aa(lp959
F0.061600000000000002
aF0.1201
aF0.81830000000000003
aa(lp960
F0.051499999999999997
aF0.13139999999999999
aF0.81710000000000005
aasg14
(lp961
(lp962
F0.43840000000000001
aF0.069900000000000004
aF0.49170000000000003
aa(lp963
F0.29630000000000001
aF0.070000000000000007
aF0.63370000000000004
aa(lp964
F0.2258
aF0.072900000000000006
aF0.70130000000000003
aa(lp965
F0.1837
aF0.084199999999999997
aF0.73209999999999997
aa(lp966
F0.15609999999999999
aF0.088900000000000007
aF0.755
aa(lp967
F0.1404
aF0.099299999999999999
aF0.76029999999999998
aa(lp968
F0.12870000000000001
aF0.10929999999999999
aF0.76200000000000001
aa(lp969
F0.1072
aF0.1162
aF0.77659999999999996
aa(lp970
F0.1087
aF0.12870000000000001
aF0.76259999999999994
aassS'3.9'
p971
(dp972
g3
(lp973
(lp974
F0.42070000000000002
aF0.068500000000000005
aF0.51080000000000003
aa(lp975
F0.26400000000000001
aF0.069500000000000006
aF0.66649999999999998
aa(lp976
F0.182
aF0.079500000000000001
aF0.73850000000000005
aa(lp977
F0.1371
aF0.087800000000000003
aF0.77510000000000001
aa(lp978
F0.112
aF0.092499999999999999
aF0.79549999999999998
aa(lp979
F0.091499999999999998
aF0.10050000000000001
aF0.80800000000000005
aa(lp980
F0.075899999999999995
aF0.1211
aF0.80300000000000005
aa(lp981
F0.062199999999999998
aF0.12870000000000001
aF0.80910000000000004
aa(lp982
F0.053900000000000003
aF0.13719999999999999
aF0.80889999999999995
aasg14
(lp983
(lp984
F0.46179999999999999
aF0.063899999999999998
aF0.4743
aa(lp985
F0.31109999999999999
aF0.067400000000000002
aF0.62150000000000005
aa(lp986
F0.2404
aF0.072499999999999995
aF0.68710000000000004
aa(lp987
F0.188
aF0.074300000000000005
aF0.73770000000000002
aa(lp988
F0.1573
aF0.093100000000000002
aF0.74960000000000004
aa(lp989
F0.14199999999999999
aF0.10299999999999999
aF0.755
aa(lp990
F0.1192
aF0.1111
aF0.76970000000000005
aa(lp991
F0.1119
aF0.1229
aF0.76519999999999999
aa(lp992
F0.10680000000000001
aF0.1242
aF0.76900000000000002
aassS'8.13'
p993
(dp994
g3
(lp995
(lp996
F0.57689999999999997
aF0.0465
aF0.37659999999999999
aa(lp997
F0.39290000000000003
aF0.064100000000000004
aF0.54300000000000004
aa(lp998
F0.29470000000000002
aF0.075499999999999998
aF0.62980000000000003
aa(lp999
F0.22090000000000001
aF0.083199999999999996
aF0.69589999999999996
aa(lp1000
F0.18590000000000001
aF0.10000000000000001
aF0.71409999999999996
aa(lp1001
F0.15029999999999999
aF0.10390000000000001
aF0.74580000000000002
aa(lp1002
F0.1263
aF0.1205
aF0.75319999999999998
aa(lp1003
F0.1061
aF0.13070000000000001
aF0.76319999999999999
aa(lp1004
F0.090999999999999998
aF0.14149999999999999
aF0.76749999999999996
aasg14
(lp1005
(lp1006
F0.60329999999999995
aF0.043400000000000001
aF0.3533
aa(lp1007
F0.43380000000000002
aF0.0591
aF0.5071
aa(lp1008
F0.33550000000000002
aF0.070300000000000001
aF0.59419999999999995
aa(lp1009
F0.28170000000000001
aF0.081000000000000003
aF0.63729999999999998
aa(lp1010
F0.2442
aF0.091800000000000007
aF0.66400000000000003
aa(lp1011
F0.21229999999999999
aF0.097600000000000006
aF0.69010000000000005
aa(lp1012
F0.18740000000000001
aF0.11219999999999999
aF0.70040000000000002
aa(lp1013
F0.1648
aF0.1202
aF0.71499999999999997
aa(lp1014
F0.14380000000000001
aF0.13420000000000001
aF0.72199999999999998
aassS'8.12'
p1015
(dp1016
g3
(lp1017
(lp1018
F0.55740000000000001
aF0.052900000000000003
aF0.38969999999999999
aa(lp1019
F0.3735
aF0.064899999999999999
aF0.56159999999999999
aa(lp1020
F0.27510000000000001
aF0.072700000000000001
aF0.6522
aa(lp1021
F0.21410000000000001
aF0.082799999999999999
aF0.70309999999999995
aa(lp1022
F0.17199999999999999
aF0.1004
aF0.72760000000000002
aa(lp1023
F0.1389
aF0.1091
aF0.752
aa(lp1024
F0.1168
aF0.1179
aF0.76529999999999998
aa(lp1025
F0.099900000000000003
aF0.12470000000000001
aF0.77539999999999998
aa(lp1026
F0.082500000000000004
aF0.13780000000000001
aF0.77969999999999995
aasg14
(lp1027
(lp1028
F0.57779999999999998
aF0.048599999999999997
aF0.37359999999999999
aa(lp1029
F0.41020000000000001
aF0.061899999999999997
aF0.52790000000000004
aa(lp1030
F0.32269999999999999
aF0.071300000000000002
aF0.60599999999999998
aa(lp1031
F0.2757
aF0.080199999999999994
aF0.64410000000000001
aa(lp1032
F0.23200000000000001
aF0.092999999999999999
aF0.67500000000000004
aa(lp1033
F0.1958
aF0.099500000000000005
aF0.70469999999999999
aa(lp1034
F0.18279999999999999
aF0.11070000000000001
aF0.70650000000000002
aa(lp1035
F0.15820000000000001
aF0.12180000000000001
aF0.71999999999999997
aa(lp1036
F0.1469
aF0.129
aF0.72409999999999997
aassS'11.14'
p1037
(dp1038
g3
(lp1039
(lp1040
F0.65690000000000004
aF0.0373
aF0.30580000000000002
aa(lp1041
F0.46889999999999998
aF0.056000000000000001
aF0.47510000000000002
aa(lp1042
F0.37180000000000002
aF0.066000000000000003
aF0.56220000000000003
aa(lp1043
F0.3024
aF0.075999999999999998
aF0.62160000000000004
aa(lp1044
F0.25779999999999997
aF0.085400000000000004
aF0.65680000000000005
aa(lp1045
F0.2087
aF0.1067
aF0.68459999999999999
aa(lp1046
F0.1825
aF0.1164
aF0.70109999999999995
aa(lp1047
F0.1537
aF0.12670000000000001
aF0.71960000000000002
aa(lp1048
F0.1376
aF0.14280000000000001
aF0.71960000000000002
aasg14
(lp1049
(lp1050
F0.67390000000000005
aF0.037699999999999997
aF0.28839999999999999
aa(lp1051
F0.51060000000000005
aF0.0511
aF0.43830000000000002
aa(lp1052
F0.41070000000000001
aF0.062300000000000001
aF0.52700000000000002
aa(lp1053
F0.35630000000000001
aF0.075800000000000006
aF0.56789999999999996
aa(lp1054
F0.30890000000000001
aF0.087999999999999995
aF0.60309999999999997
aa(lp1055
F0.2737
aF0.094700000000000006
aF0.63160000000000005
aa(lp1056
F0.23680000000000001
aF0.108
aF0.6552
aa(lp1057
F0.21970000000000001
aF0.11550000000000001
aF0.66479999999999995
aa(lp1058
F0.2046
aF0.13300000000000001
aF0.66239999999999999
aassS'11.12'
p1059
(dp1060
g3
(lp1061
(lp1062
F0.60629999999999995
aF0.042299999999999997
aF0.35139999999999999
aa(lp1063
F0.43919999999999998
aF0.057299999999999997
aF0.50349999999999995
aa(lp1064
F0.3463
aF0.071199999999999999
aF0.58250000000000002
aa(lp1065
F0.28220000000000001
aF0.078299999999999995
aF0.63949999999999996
aa(lp1066
F0.2351
aF0.094100000000000003
aF0.67079999999999995
aa(lp1067
F0.19739999999999999
aF0.1091
aF0.69350000000000001
aa(lp1068
F0.16450000000000001
aF0.1157
aF0.7198
aa(lp1069
F0.1454
aF0.12670000000000001
aF0.72789999999999999
aa(lp1070
F0.1222
aF0.13780000000000001
aF0.73999999999999999
aasg14
(lp1071
(lp1072
F0.64239999999999997
aF0.038199999999999998
aF0.31940000000000002
aa(lp1073
F0.48110000000000003
aF0.048500000000000001
aF0.47039999999999998
aa(lp1074
F0.38769999999999999
aF0.064100000000000004
aF0.54820000000000002
aa(lp1075
F0.32929999999999998
aF0.069699999999999998
aF0.60099999999999998
aa(lp1076
F0.29039999999999999
aF0.081500000000000003
aF0.62809999999999999
aa(lp1077
F0.24970000000000001
aF0.095600000000000004
aF0.65469999999999995
aa(lp1078
F0.21809999999999999
aF0.1067
aF0.67520000000000002
aa(lp1079
F0.19700000000000001
aF0.12039999999999999
aF0.68259999999999998
aa(lp1080
F0.17860000000000001
aF0.13270000000000001
aF0.68869999999999998
aassS'9.13'
p1081
(dp1082
g3
(lp1083
(lp1084
F0.58899999999999997
aF0.045199999999999997
aF0.36580000000000001
aa(lp1085
F0.41239999999999999
aF0.059400000000000001
aF0.5282
aa(lp1086
F0.32390000000000002
aF0.073099999999999998
aF0.60299999999999998
aa(lp1087
F0.2465
aF0.084199999999999997
aF0.66930000000000001
aa(lp1088
F0.2016
aF0.096500000000000002
aF0.70189999999999997
aa(lp1089
F0.1666
aF0.108
aF0.72540000000000004
aa(lp1090
F0.14019999999999999
aF0.1182
aF0.74160000000000004
aa(lp1091
F0.1181
aF0.12740000000000001
aF0.75449999999999995
aa(lp1092
F0.1007
aF0.13539999999999999
aF0.76390000000000002
aasg14
(lp1093
(lp1094
F0.62470000000000003
aF0.039600000000000003
aF0.3357
aa(lp1095
F0.46460000000000001
aF0.051999999999999998
aF0.4834
aa(lp1096
F0.36049999999999999
aF0.071400000000000005
aF0.56810000000000005
aa(lp1097
F0.31230000000000002
aF0.073499999999999996
aF0.61419999999999997
aa(lp1098
F0.25609999999999999
aF0.087099999999999997
aF0.65680000000000005
aa(lp1099
F0.2215
aF0.098900000000000002
aF0.67959999999999998
aa(lp1100
F0.19309999999999999
aF0.10390000000000001
aF0.70299999999999996
aa(lp1101
F0.17999999999999999
aF0.1158
aF0.70420000000000005
aa(lp1102
F0.16
aF0.13059999999999999
aF0.70940000000000003
aassS'9.10'
p1103
(dp1104
g3
(lp1105
(lp1106
F0.54720000000000002
aF0.049799999999999997
aF0.40300000000000002
aa(lp1107
F0.38319999999999999
aF0.058700000000000002
aF0.55810000000000004
aa(lp1108
F0.28260000000000002
aF0.078100000000000003
aF0.63929999999999998
aa(lp1109
F0.2402
aF0.0814
aF0.6784
aa(lp1110
F0.18629999999999999
aF0.098100000000000007
aF0.71560000000000001
aa(lp1111
F0.1573
aF0.1071
aF0.73560000000000003
aa(lp1112
F0.12670000000000001
aF0.12139999999999999
aF0.75190000000000001
aa(lp1113
F0.1142
aF0.13139999999999999
aF0.75439999999999996
aa(lp1114
F0.1028
aF0.13830000000000001
aF0.75890000000000002
aasg14
(lp1115
(lp1116
F0.56730000000000003
aF0.046399999999999997
aF0.38629999999999998
aa(lp1117
F0.41880000000000001
aF0.060600000000000001
aF0.52059999999999995
aa(lp1118
F0.3322
aF0.067400000000000002
aF0.60040000000000004
aa(lp1119
F0.27779999999999999
aF0.075999999999999998
aF0.6462
aa(lp1120
F0.23799999999999999
aF0.0911
aF0.67090000000000005
aa(lp1121
F0.21340000000000001
aF0.097699999999999995
aF0.68889999999999996
aa(lp1122
F0.18640000000000001
aF0.109
aF0.7046
aa(lp1123
F0.16550000000000001
aF0.1222
aF0.71230000000000004
aa(lp1124
F0.1532
aF0.1338
aF0.71299999999999997
aassS'9.11'
p1125
(dp1126
g3
(lp1127
(lp1128
F0.55500000000000005
aF0.051299999999999998
aF0.39369999999999999
aa(lp1129
F0.39000000000000001
aF0.060100000000000001
aF0.54990000000000006
aa(lp1130
F0.29799999999999999
aF0.0746
aF0.62739999999999996
aa(lp1131
F0.22989999999999999
aF0.083000000000000004
aF0.68710000000000004
aa(lp1132
F0.19400000000000001
aF0.094500000000000001
aF0.71150000000000002
aa(lp1133
F0.15909999999999999
aF0.1043
aF0.73660000000000003
aa(lp1134
F0.12759999999999999
aF0.12479999999999999
aF0.74760000000000004
aa(lp1135
F0.11360000000000001
aF0.13170000000000001
aF0.75470000000000004
aa(lp1136
F0.099599999999999994
aF0.13600000000000001
aF0.76439999999999997
aasg14
(lp1137
(lp1138
F0.58720000000000006
aF0.042700000000000002
aF0.37009999999999998
aa(lp1139
F0.42530000000000001
aF0.058599999999999999
aF0.5161
aa(lp1140
F0.34539999999999998
aF0.066500000000000004
aF0.58809999999999996
aa(lp1141
F0.28489999999999999
aF0.080399999999999999
aF0.63470000000000004
aa(lp1142
F0.25290000000000001
aF0.083199999999999996
aF0.66390000000000005
aa(lp1143
F0.20760000000000001
aF0.098699999999999996
aF0.69369999999999998
aa(lp1144
F0.18360000000000001
aF0.10970000000000001
aF0.70669999999999999
aa(lp1145
F0.16520000000000001
aF0.11990000000000001
aF0.71489999999999998
aa(lp1146
F0.1457
aF0.13059999999999999
aF0.72370000000000001
aassS'14.14'
p1147
(dp1148
g3
(lp1149
(lp1150
F0.86099999999999999
aF0.010500000000000001
aF0.1285
aa(lp1151
F0.77529999999999999
aF0.02
aF0.20469999999999999
aa(lp1152
F0.67630000000000001
aF0.0287
aF0.29499999999999998
aa(lp1153
F0.61399999999999999
aF0.035900000000000001
aF0.35010000000000002
aa(lp1154
F0.5585
aF0.046199999999999998
aF0.39529999999999998
aa(lp1155
F0.49909999999999999
aF0.060299999999999999
aF0.44059999999999999
aa(lp1156
F0.46089999999999998
aF0.068400000000000002
aF0.47070000000000001
aa(lp1157
F0.41639999999999999
aF0.081199999999999994
aF0.50239999999999996
aa(lp1158
F0.3831
aF0.091800000000000007
aF0.52510000000000001
aasg14
(lp1159
(lp1160
F0.87670000000000003
aF0.0091000000000000004
aF0.1142
aa(lp1161
F0.77890000000000004
aF0.015599999999999999
aF0.20549999999999999
aa(lp1162
F0.70469999999999999
aF0.0223
aF0.27300000000000002
aa(lp1163
F0.63719999999999999
aF0.031899999999999998
aF0.33090000000000003
aa(lp1164
F0.5756
aF0.040000000000000001
aF0.38440000000000002
aa(lp1165
F0.54100000000000004
aF0.050200000000000002
aF0.4088
aa(lp1166
F0.49559999999999998
aF0.058999999999999997
aF0.44540000000000002
aa(lp1167
F0.47639999999999999
aF0.075999999999999998
aF0.4476
aa(lp1168
F0.43219999999999997
aF0.082299999999999998
aF0.48549999999999999
aassS'8.9'
p1169
(dp1170
g3
(lp1171
(lp1172
F0.50149999999999995
aF0.059799999999999999
aF0.43869999999999998
aa(lp1173
F0.35010000000000002
aF0.067900000000000002
aF0.58199999999999996
aa(lp1174
F0.25900000000000001
aF0.075399999999999995
aF0.66559999999999997
aa(lp1175
F0.2104
aF0.089200000000000002
aF0.70040000000000002
aa(lp1176
F0.16769999999999999
aF0.10059999999999999
aF0.73170000000000002
aa(lp1177
F0.1409
aF0.1079
aF0.75119999999999998
aa(lp1178
F0.1183
aF0.1174
aF0.76429999999999998
aa(lp1179
F0.098900000000000002
aF0.1295
aF0.77159999999999995
aa(lp1180
F0.087900000000000006
aF0.1363
aF0.77580000000000005
aasg14
(lp1181
(lp1182
F0.5373
aF0.050799999999999998
aF0.41189999999999999
aa(lp1183
F0.38719999999999999
aF0.065799999999999997
aF0.54700000000000004
aa(lp1184
F0.31019999999999998
aF0.071999999999999995
aF0.61780000000000002
aa(lp1185
F0.25829999999999997
aF0.076899999999999996
aF0.66479999999999995
aa(lp1186
F0.21229999999999999
aF0.091600000000000001
aF0.69610000000000005
aa(lp1187
F0.1885
aF0.10059999999999999
aF0.71089999999999998
aa(lp1188
F0.16450000000000001
aF0.10970000000000001
aF0.7258
aa(lp1189
F0.15079999999999999
aF0.11890000000000001
aF0.73029999999999995
aa(lp1190
F0.13569999999999999
aF0.1235
aF0.74080000000000001
aassS'8.8'
p1191
(dp1192
g3
(lp1193
(lp1194
F0.73329999999999995
aF0.0134
aF0.25330000000000003
aa(lp1195
F0.56720000000000004
aF0.023800000000000002
aF0.40899999999999997
aa(lp1196
F0.45200000000000001
aF0.039199999999999999
aF0.50880000000000003
aa(lp1197
F0.38969999999999999
aF0.043299999999999998
aF0.56699999999999995
aa(lp1198
F0.33229999999999998
aF0.055899999999999998
aF0.61180000000000001
aa(lp1199
F0.29670000000000002
aF0.067400000000000002
aF0.63590000000000002
aa(lp1200
F0.26750000000000002
aF0.077899999999999997
aF0.65459999999999996
aa(lp1201
F0.2442
aF0.099299999999999999
aF0.65649999999999997
aa(lp1202
F0.2399
aF0.1031
aF0.65700000000000003
aasg14
(lp1203
(lp1204
F0.746
aF0.0124
aF0.24160000000000001
aa(lp1205
F0.59050000000000002
aF0.023300000000000001
aF0.38619999999999999
aa(lp1206
F0.48830000000000001
aF0.034000000000000002
aF0.47770000000000001
aa(lp1207
F0.41339999999999999
aF0.039600000000000003
aF0.54700000000000004
aa(lp1208
F0.37309999999999999
aF0.052400000000000002
aF0.57450000000000001
aa(lp1209
F0.33160000000000001
aF0.064500000000000002
aF0.60389999999999999
aa(lp1210
F0.31069999999999998
aF0.0746
aF0.61470000000000002
aa(lp1211
F0.28570000000000001
aF0.078100000000000003
aF0.63619999999999999
aa(lp1212
F0.27710000000000001
aF0.087300000000000003
aF0.63560000000000005
aassS'9.9'
p1213
(dp1214
g3
(lp1215
(lp1216
F0.74850000000000005
aF0.015599999999999999
aF0.2359
aa(lp1217
F0.60029999999999994
aF0.020299999999999999
aF0.37940000000000002
aa(lp1218
F0.49020000000000002
aF0.033399999999999999
aF0.47639999999999999
aa(lp1219
F0.40899999999999997
aF0.047399999999999998
aF0.54359999999999997
aa(lp1220
F0.3528
aF0.053199999999999997
aF0.59399999999999997
aa(lp1221
F0.32179999999999997
aF0.062700000000000006
aF0.61550000000000005
aa(lp1222
F0.28710000000000002
aF0.081199999999999994
aF0.63170000000000004
aa(lp1223
F0.25600000000000001
aF0.093200000000000005
aF0.65080000000000005
aa(lp1224
F0.24440000000000001
aF0.093200000000000005
aF0.66239999999999999
aasg14
(lp1225
(lp1226
F0.77910000000000001
aF0.012500000000000001
aF0.2084
aa(lp1227
F0.63
aF0.020199999999999999
aF0.3498
aa(lp1228
F0.52629999999999999
aF0.029100000000000001
aF0.4446
aa(lp1229
F0.45169999999999999
aF0.041200000000000001
aF0.5071
aa(lp1230
F0.39240000000000003
aF0.051799999999999999
aF0.55579999999999996
aa(lp1231
F0.3528
aF0.066500000000000004
aF0.58069999999999999
aa(lp1232
F0.32300000000000001
aF0.074700000000000003
aF0.60229999999999995
aa(lp1233
F0.30220000000000002
aF0.084000000000000005
aF0.61380000000000001
aa(lp1234
F0.28899999999999998
aF0.097500000000000003
aF0.61350000000000005
aassS'6.13'
p1235
(dp1236
g3
(lp1237
(lp1238
F0.56189999999999996
aF0.055500000000000001
aF0.3826
aa(lp1239
F0.36659999999999998
aF0.072999999999999995
aF0.56040000000000001
aa(lp1240
F0.26440000000000002
aF0.080299999999999996
aF0.65529999999999999
aa(lp1241
F0.2019
aF0.088900000000000007
aF0.70920000000000005
aa(lp1242
F0.1633
aF0.096600000000000005
aF0.74009999999999998
aa(lp1243
F0.12770000000000001
aF0.11559999999999999
aF0.75670000000000004
aa(lp1244
F0.1099
aF0.11899999999999999
aF0.77110000000000001
aa(lp1245
F0.098100000000000007
aF0.1273
aF0.77459999999999996
aa(lp1246
F0.0814
aF0.1409
aF0.77769999999999995
aasg14
(lp1247
(lp1248
F0.57310000000000005
aF0.054399999999999997
aF0.3725
aa(lp1249
F0.40989999999999999
aF0.065299999999999997
aF0.52480000000000004
aa(lp1250
F0.32140000000000002
aF0.072900000000000006
aF0.60570000000000002
aa(lp1251
F0.26319999999999999
aF0.081100000000000005
aF0.65569999999999995
aa(lp1252
F0.21970000000000001
aF0.095799999999999996
aF0.6845
aa(lp1253
F0.19120000000000001
aF0.10150000000000001
aF0.70730000000000004
aa(lp1254
F0.16370000000000001
aF0.1157
aF0.72060000000000002
aa(lp1255
F0.15959999999999999
aF0.124
aF0.71640000000000004
aa(lp1256
F0.14280000000000001
aF0.13550000000000001
aF0.72170000000000001
aassS'6.12'
p1257
(dp1258
g3
(lp1259
(lp1260
F0.52270000000000005
aF0.056899999999999999
aF0.4204
aa(lp1261
F0.33939999999999998
aF0.068599999999999994
aF0.59199999999999997
aa(lp1262
F0.24049999999999999
aF0.082199999999999995
aF0.67730000000000001
aa(lp1263
F0.1903
aF0.086800000000000002
aF0.72289999999999999
aa(lp1264
F0.14460000000000001
aF0.10299999999999999
aF0.75239999999999996
aa(lp1265
F0.12720000000000001
aF0.114
aF0.75880000000000003
aa(lp1266
F0.096199999999999994
aF0.1239
aF0.77990000000000004
aa(lp1267
F0.087300000000000003
aF0.13150000000000001
aF0.78120000000000001
aa(lp1268
F0.067599999999999993
aF0.1449
aF0.78749999999999998
aasg14
(lp1269
(lp1270
F0.55649999999999999
aF0.054199999999999998
aF0.38929999999999998
aa(lp1271
F0.38669999999999999
aF0.0654
aF0.54790000000000005
aa(lp1272
F0.29849999999999999
aF0.076499999999999999
aF0.625
aa(lp1273
F0.24460000000000001
aF0.079000000000000001
aF0.6764
aa(lp1274
F0.2092
aF0.089099999999999999
aF0.70169999999999999
aa(lp1275
F0.18060000000000001
aF0.1043
aF0.71509999999999996
aa(lp1276
F0.15290000000000001
aF0.1158
aF0.73129999999999995
aa(lp1277
F0.13969999999999999
aF0.12180000000000001
aF0.73850000000000005
aa(lp1278
F0.125
aF0.13880000000000001
aF0.73619999999999997
aassS'6.11'
p1279
(dp1280
g3
(lp1281
(lp1282
F0.49370000000000003
aF0.064699999999999994
aF0.44159999999999999
aa(lp1283
F0.32050000000000001
aF0.073899999999999993
aF0.60560000000000003
aa(lp1284
F0.2225
aF0.081000000000000003
aF0.69650000000000001
aa(lp1285
F0.17330000000000001
aF0.092999999999999999
aF0.73370000000000002
aa(lp1286
F0.13300000000000001
aF0.096699999999999994
aF0.77029999999999998
aa(lp1287
F0.1163
aF0.10730000000000001
aF0.77639999999999998
aa(lp1288
F0.096100000000000005
aF0.1236
aF0.78029999999999999
aa(lp1289
F0.078299999999999995
aF0.1341
aF0.78759999999999997
aa(lp1290
F0.060699999999999997
aF0.1447
aF0.79459999999999997
aasg14
(lp1291
(lp1292
F0.53900000000000003
aF0.055
aF0.40600000000000003
aa(lp1293
F0.36509999999999998
aF0.069699999999999998
aF0.56520000000000004
aa(lp1294
F0.28939999999999999
aF0.073200000000000001
aF0.63739999999999997
aa(lp1295
F0.2278
aF0.081799999999999998
aF0.69040000000000001
aa(lp1296
F0.18970000000000001
aF0.095200000000000007
aF0.71509999999999996
aa(lp1297
F0.1648
aF0.10340000000000001
aF0.73180000000000001
aa(lp1298
F0.1477
aF0.11169999999999999
aF0.74060000000000004
aa(lp1299
F0.1323
aF0.1167
aF0.751
aa(lp1300
F0.1263
aF0.13320000000000001
aF0.74050000000000005
aassS'6.10'
p1301
(dp1302
g3
(lp1303
(lp1304
F0.48060000000000003
aF0.059999999999999998
aF0.45939999999999998
aa(lp1305
F0.30869999999999997
aF0.074300000000000005
aF0.61699999999999999
aa(lp1306
F0.22090000000000001
aF0.078200000000000006
aF0.70089999999999997
aa(lp1307
F0.16800000000000001
aF0.088599999999999998
aF0.74339999999999995
aa(lp1308
F0.13339999999999999
aF0.098799999999999999
aF0.76780000000000004
aa(lp1309
F0.1076
aF0.11169999999999999
aF0.78069999999999995
aa(lp1310
F0.090200000000000002
aF0.1145
aF0.79530000000000001
aa(lp1311
F0.0751
aF0.13089999999999999
aF0.79400000000000004
aa(lp1312
F0.069000000000000006
aF0.13689999999999999
aF0.79410000000000003
aasg14
(lp1313
(lp1314
F0.51970000000000005
aF0.056300000000000003
aF0.42399999999999999
aa(lp1315
F0.3609
aF0.070000000000000007
aF0.56910000000000005
aa(lp1316
F0.26989999999999997
aF0.080399999999999999
aF0.64970000000000006
aa(lp1317
F0.2298
aF0.083900000000000002
aF0.68630000000000002
aa(lp1318
F0.18509999999999999
aF0.089700000000000002
aF0.72519999999999996
aa(lp1319
F0.1681
aF0.10299999999999999
aF0.72889999999999999
aa(lp1320
F0.14499999999999999
aF0.1095
aF0.74550000000000005
aa(lp1321
F0.1295
aF0.1208
aF0.74970000000000003
aa(lp1322
F0.1187
aF0.12889999999999999
aF0.75239999999999996
aassS'6.14'
p1323
(dp1324
g3
(lp1325
(lp1326
F0.58899999999999997
aF0.0579
aF0.35310000000000002
aa(lp1327
F0.39610000000000001
aF0.069000000000000006
aF0.53490000000000004
aa(lp1328
F0.28389999999999999
aF0.0848
aF0.63129999999999997
aa(lp1329
F0.21820000000000001
aF0.091899999999999996
aF0.68989999999999996
aa(lp1330
F0.17460000000000001
aF0.10299999999999999
aF0.72240000000000004
aa(lp1331
F0.1416
aF0.1162
aF0.74219999999999997
aa(lp1332
F0.1207
aF0.12540000000000001
aF0.75390000000000001
aa(lp1333
F0.097900000000000001
aF0.1386
aF0.76349999999999996
aa(lp1334
F0.086900000000000005
aF0.14169999999999999
aF0.77139999999999997
aasg14
(lp1335
(lp1336
F0.60880000000000001
aF0.051299999999999998
aF0.33989999999999998
aa(lp1337
F0.436
aF0.066799999999999998
aF0.49719999999999998
aa(lp1338
F0.34539999999999998
aF0.0751
aF0.57950000000000002
aa(lp1339
F0.27929999999999999
aF0.085199999999999998
aF0.63549999999999995
aa(lp1340
F0.24360000000000001
aF0.093700000000000006
aF0.66269999999999996
aa(lp1341
F0.2104
aF0.1016
aF0.68799999999999994
aa(lp1342
F0.1883
aF0.11459999999999999
aF0.69710000000000005
aa(lp1343
F0.16569999999999999
aF0.1293
aF0.70499999999999996
aa(lp1344
F0.15540000000000001
aF0.1353
aF0.70930000000000004
aassS'5.12'
p1345
(dp1346
g3
(lp1347
(lp1348
F0.50819999999999999
aF0.067400000000000002
aF0.4244
aa(lp1349
F0.33229999999999998
aF0.075700000000000003
aF0.59199999999999997
aa(lp1350
F0.2387
aF0.073300000000000004
aF0.68799999999999994
aa(lp1351
F0.17499999999999999
aF0.095899999999999999
aF0.72909999999999997
aa(lp1352
F0.14269999999999999
aF0.10290000000000001
aF0.75439999999999996
aa(lp1353
F0.1103
aF0.1125
aF0.7772
aa(lp1354
F0.095600000000000004
aF0.1278
aF0.77659999999999996
aa(lp1355
F0.081000000000000003
aF0.1363
aF0.78269999999999995
aa(lp1356
F0.070199999999999999
aF0.13270000000000001
aF0.79710000000000003
aasg14
(lp1357
(lp1358
F0.54720000000000002
aF0.061199999999999997
aF0.3916
aa(lp1359
F0.37090000000000001
aF0.069699999999999998
aF0.55940000000000001
aa(lp1360
F0.2969
aF0.073999999999999996
aF0.62909999999999999
aa(lp1361
F0.22950000000000001
aF0.083900000000000002
aF0.68659999999999999
aa(lp1362
F0.1958
aF0.094600000000000004
aF0.70960000000000001
aa(lp1363
F0.1764
aF0.10580000000000001
aF0.71779999999999999
aa(lp1364
F0.15110000000000001
aF0.1191
aF0.7298
aa(lp1365
F0.13639999999999999
aF0.1234
aF0.74019999999999997
aa(lp1366
F0.123
aF0.13589999999999999
aF0.74109999999999998
aassS'5.13'
p1367
(dp1368
g3
(lp1369
(lp1370
F0.54169999999999996
aF0.056399999999999999
aF0.40189999999999998
aa(lp1371
F0.35020000000000001
aF0.073899999999999993
aF0.57589999999999997
aa(lp1372
F0.25559999999999999
aF0.080500000000000002
aF0.66390000000000005
aa(lp1373
F0.19209999999999999
aF0.093299999999999994
aF0.71460000000000001
aa(lp1374
F0.1588
aF0.097600000000000006
aF0.74360000000000004
aa(lp1375
F0.12920000000000001
aF0.1104
aF0.76039999999999996
aa(lp1376
F0.10589999999999999
aF0.122
aF0.77210000000000001
aa(lp1377
F0.091200000000000003
aF0.13730000000000001
aF0.77149999999999996
aa(lp1378
F0.074200000000000002
aF0.14630000000000001
aF0.77949999999999997
aasg14
(lp1379
(lp1380
F0.56559999999999999
aF0.054899999999999997
aF0.3795
aa(lp1381
F0.39989999999999998
aF0.064699999999999994
aF0.53539999999999999
aa(lp1382
F0.31069999999999998
aF0.074899999999999994
aF0.61439999999999995
aa(lp1383
F0.26740000000000003
aF0.088400000000000006
aF0.64419999999999999
aa(lp1384
F0.2074
aF0.097900000000000001
aF0.69469999999999998
aa(lp1385
F0.18659999999999999
aF0.11409999999999999
aF0.69930000000000003
aa(lp1386
F0.16200000000000001
aF0.1197
aF0.71830000000000005
aa(lp1387
F0.14710000000000001
aF0.1235
aF0.72940000000000005
aa(lp1388
F0.1376
aF0.13539999999999999
aF0.72699999999999998
aassS'5.10'
p1389
(dp1390
g3
(lp1391
(lp1392
F0.4657
aF0.0659
aF0.46839999999999998
aa(lp1393
F0.29289999999999999
aF0.070000000000000007
aF0.6371
aa(lp1394
F0.2039
aF0.0809
aF0.71519999999999995
aa(lp1395
F0.16250000000000001
aF0.087300000000000003
aF0.75019999999999998
aa(lp1396
F0.12570000000000001
aF0.098000000000000004
aF0.77629999999999999
aa(lp1397
F0.097299999999999998
aF0.1048
aF0.79790000000000005
aa(lp1398
F0.079500000000000001
aF0.11990000000000001
aF0.80059999999999998
aa(lp1399
F0.070900000000000005
aF0.12790000000000001
aF0.80120000000000002
aa(lp1400
F0.057299999999999997
aF0.14199999999999999
aF0.80069999999999997
aasg14
(lp1401
(lp1402
F0.49680000000000002
aF0.060900000000000003
aF0.44230000000000003
aa(lp1403
F0.34260000000000002
aF0.067100000000000007
aF0.59030000000000005
aa(lp1404
F0.2596
aF0.077799999999999994
aF0.66259999999999997
aa(lp1405
F0.20660000000000001
aF0.084599999999999995
aF0.70879999999999999
aa(lp1406
F0.18329999999999999
aF0.095000000000000001
aF0.72170000000000001
aa(lp1407
F0.15390000000000001
aF0.099900000000000003
aF0.74619999999999997
aa(lp1408
F0.12970000000000001
aF0.11799999999999999
aF0.75229999999999997
aa(lp1409
F0.1231
aF0.124
aF0.75290000000000001
aa(lp1410
F0.1132
aF0.13039999999999999
aF0.75639999999999996
aassS'5.11'
p1411
(dp1412
g3
(lp1413
(lp1414
F0.48549999999999999
aF0.067000000000000004
aF0.44750000000000001
aa(lp1415
F0.30809999999999998
aF0.072300000000000003
aF0.61960000000000004
aa(lp1416
F0.2162
aF0.085999999999999993
aF0.69779999999999998
aa(lp1417
F0.16839999999999999
aF0.089700000000000002
aF0.7419
aa(lp1418
F0.129
aF0.098699999999999996
aF0.77229999999999999
aa(lp1419
F0.1051
aF0.1118
aF0.78310000000000002
aa(lp1420
F0.092399999999999996
aF0.1188
aF0.78879999999999995
aa(lp1421
F0.077899999999999997
aF0.13020000000000001
aF0.79190000000000005
aa(lp1422
F0.063600000000000004
aF0.1341
aF0.80230000000000001
aasg14
(lp1423
(lp1424
F0.52059999999999995
aF0.062399999999999997
aF0.41699999999999998
aa(lp1425
F0.35759999999999997
aF0.068599999999999994
aF0.57379999999999998
aa(lp1426
F0.28449999999999998
aF0.075700000000000003
aF0.63980000000000004
aa(lp1427
F0.22570000000000001
aF0.084699999999999998
aF0.68959999999999999
aa(lp1428
F0.18679999999999999
aF0.095000000000000001
aF0.71819999999999995
aa(lp1429
F0.16320000000000001
aF0.098100000000000007
aF0.73870000000000002
aa(lp1430
F0.13869999999999999
aF0.11310000000000001
aF0.74819999999999998
aa(lp1431
F0.1293
aF0.1221
aF0.74860000000000004
aa(lp1432
F0.1187
aF0.14000000000000001
aF0.74129999999999996
aassS'5.14'
p1433
(dp1434
g3
(lp1435
(lp1436
F0.57779999999999998
aF0.059900000000000002
aF0.36230000000000001
aa(lp1437
F0.39019999999999999
aF0.072999999999999995
aF0.53680000000000005
aa(lp1438
F0.2843
aF0.085800000000000001
aF0.62990000000000002
aa(lp1439
F0.21759999999999999
aF0.1016
aF0.68079999999999996
aa(lp1440
F0.17510000000000001
aF0.1071
aF0.71779999999999999
aa(lp1441
F0.14319999999999999
aF0.1205
aF0.73629999999999995
aa(lp1442
F0.11840000000000001
aF0.12939999999999999
aF0.75219999999999998
aa(lp1443
F0.1051
aF0.1414
aF0.75349999999999995
aa(lp1444
F0.089099999999999999
aF0.14349999999999999
aF0.76739999999999997
aasg14
(lp1445
(lp1446
F0.61180000000000001
aF0.0521
aF0.33610000000000001
aa(lp1447
F0.42930000000000001
aF0.071999999999999995
aF0.49869999999999998
aa(lp1448
F0.33239999999999997
aF0.0751
aF0.59250000000000003
aa(lp1449
F0.27939999999999998
aF0.088700000000000001
aF0.63190000000000002
aa(lp1450
F0.23139999999999999
aF0.093299999999999994
aF0.67530000000000001
aa(lp1451
F0.2099
aF0.1099
aF0.68020000000000003
aa(lp1452
F0.18559999999999999
aF0.1198
aF0.6946
aa(lp1453
F0.1623
aF0.1255
aF0.71220000000000006
aa(lp1454
F0.14979999999999999
aF0.1381
aF0.71209999999999996
aassS'10.11'
p1455
(dp1456
g3
(lp1457
(lp1458
F0.57389999999999997
aF0.0482
aF0.37790000000000001
aa(lp1459
F0.40489999999999998
aF0.062199999999999998
aF0.53290000000000004
aa(lp1460
F0.31940000000000002
aF0.071999999999999995
aF0.60860000000000003
aa(lp1461
F0.25469999999999998
aF0.080299999999999996
aF0.66500000000000004
aa(lp1462
F0.21310000000000001
aF0.094899999999999998
aF0.69199999999999995
aa(lp1463
F0.18290000000000001
aF0.1037
aF0.71340000000000003
aa(lp1464
F0.15359999999999999
aF0.11559999999999999
aF0.73080000000000001
aa(lp1465
F0.13389999999999999
aF0.12640000000000001
aF0.73970000000000002
aa(lp1466
F0.1101
aF0.14180000000000001
aF0.74809999999999999
aasg14
(lp1467
(lp1468
F0.61160000000000003
aF0.040500000000000001
aF0.34789999999999999
aa(lp1469
F0.46239999999999998
aF0.054399999999999997
aF0.48320000000000002
aa(lp1470
F0.36370000000000002
aF0.069900000000000004
aF0.56640000000000001
aa(lp1471
F0.30049999999999999
aF0.080100000000000005
aF0.61939999999999995
aa(lp1472
F0.26550000000000001
aF0.083199999999999996
aF0.65129999999999999
aa(lp1473
F0.23710000000000001
aF0.096199999999999994
aF0.66669999999999996
aa(lp1474
F0.2001
aF0.1082
aF0.69169999999999998
aa(lp1475
F0.18340000000000001
aF0.1158
aF0.70079999999999998
aa(lp1476
F0.16059999999999999
aF0.1343
aF0.70509999999999995
aassS'10.10'
p1477
(dp1478
g3
(lp1479
(lp1480
F0.78090000000000004
aF0.012200000000000001
aF0.2069
aa(lp1481
F0.63500000000000001
aF0.0223
aF0.3427
aa(lp1482
F0.52759999999999996
aF0.034299999999999997
aF0.43809999999999999
aa(lp1483
F0.439
aF0.0441
aF0.51690000000000003
aa(lp1484
F0.3821
aF0.053900000000000003
aF0.56399999999999995
aa(lp1485
F0.33339999999999997
aF0.069900000000000004
aF0.59670000000000001
aa(lp1486
F0.30559999999999998
aF0.080699999999999994
aF0.61370000000000002
aa(lp1487
F0.27800000000000002
aF0.091300000000000006
aF0.63070000000000004
aa(lp1488
F0.24399999999999999
aF0.10199999999999999
aF0.65400000000000003
aasg14
(lp1489
(lp1490
F0.7954
aF0.013299999999999999
aF0.1913
aa(lp1491
F0.65310000000000001
aF0.0195
aF0.32740000000000002
aa(lp1492
F0.55089999999999995
aF0.031
aF0.41810000000000003
aa(lp1493
F0.47799999999999998
aF0.040000000000000001
aF0.48199999999999998
aa(lp1494
F0.41959999999999997
aF0.049000000000000002
aF0.53139999999999998
aa(lp1495
F0.37369999999999998
aF0.067299999999999999
aF0.55900000000000005
aa(lp1496
F0.33979999999999999
aF0.074700000000000003
aF0.58550000000000002
aa(lp1497
F0.31490000000000001
aF0.082799999999999999
aF0.60229999999999995
aa(lp1498
F0.29580000000000001
aF0.091800000000000007
aF0.61240000000000006
aassS'10.13'
p1499
(dp1500
g3
(lp1501
(lp1502
F0.61109999999999998
aF0.039600000000000003
aF0.3493
aa(lp1503
F0.44009999999999999
aF0.058099999999999999
aF0.50180000000000002
aa(lp1504
F0.34520000000000001
aF0.067699999999999996
aF0.58709999999999996
aa(lp1505
F0.27860000000000001
aF0.080799999999999997
aF0.64059999999999995
aa(lp1506
F0.23219999999999999
aF0.092700000000000005
aF0.67510000000000003
aa(lp1507
F0.19259999999999999
aF0.1053
aF0.70209999999999995
aa(lp1508
F0.16400000000000001
aF0.1106
aF0.72540000000000004
aa(lp1509
F0.14130000000000001
aF0.12820000000000001
aF0.73050000000000004
aa(lp1510
F0.1245
aF0.1376
aF0.7379
aasg14
(lp1511
(lp1512
F0.64319999999999999
aF0.041399999999999999
aF0.31540000000000001
aa(lp1513
F0.48409999999999997
aF0.052200000000000003
aF0.4637
aa(lp1514
F0.38869999999999999
aF0.066000000000000003
aF0.54530000000000001
aa(lp1515
F0.32500000000000001
aF0.076300000000000007
aF0.59870000000000001
aa(lp1516
F0.27439999999999998
aF0.089599999999999999
aF0.63600000000000001
aa(lp1517
F0.25130000000000002
aF0.10009999999999999
aF0.64859999999999995
aa(lp1518
F0.2175
aF0.1091
aF0.6734
aa(lp1519
F0.19650000000000001
aF0.1148
aF0.68869999999999998
aa(lp1520
F0.18429999999999999
aF0.13400000000000001
aF0.68169999999999997
aassS'10.12'
p1521
(dp1522
g3
(lp1523
(lp1524
F0.59999999999999998
aF0.0448
aF0.35520000000000002
aa(lp1525
F0.41799999999999998
aF0.062
aF0.52000000000000002
aa(lp1526
F0.32429999999999998
aF0.071099999999999997
aF0.60460000000000003
aa(lp1527
F0.26640000000000003
aF0.078299999999999995
aF0.65529999999999999
aa(lp1528
F0.22120000000000001
aF0.095600000000000004
aF0.68320000000000003
aa(lp1529
F0.1852
aF0.107
aF0.70779999999999998
aa(lp1530
F0.15989999999999999
aF0.12130000000000001
aF0.71879999999999999
aa(lp1531
F0.12839999999999999
aF0.13550000000000001
aF0.73609999999999998
aa(lp1532
F0.1198
aF0.14019999999999999
aF0.73999999999999999
aasg14
(lp1533
(lp1534
F0.61329999999999996
aF0.042500000000000003
aF0.34420000000000001
aa(lp1535
F0.46689999999999998
aF0.052400000000000002
aF0.48070000000000002
aa(lp1536
F0.379
aF0.063200000000000006
aF0.55779999999999996
aa(lp1537
F0.30349999999999999
aF0.0814
aF0.61509999999999998
aa(lp1538
F0.26419999999999999
aF0.090399999999999994
aF0.64539999999999997
aa(lp1539
F0.23899999999999999
aF0.095200000000000007
aF0.66579999999999995
aa(lp1540
F0.21390000000000001
aF0.1086
aF0.67749999999999999
aa(lp1541
F0.19020000000000001
aF0.1147
aF0.69510000000000005
aa(lp1542
F0.1714
aF0.12939999999999999
aF0.69920000000000004
aassS'10.14'
p1543
(dp1544
g3
(lp1545
(lp1546
F0.6401
aF0.044299999999999999
aF0.31559999999999999
aa(lp1547
F0.46639999999999998
aF0.054100000000000002
aF0.47949999999999998
aa(lp1548
F0.35549999999999998
aF0.069599999999999995
aF0.57489999999999997
aa(lp1549
F0.28589999999999999
aF0.081199999999999994
aF0.63290000000000002
aa(lp1550
F0.2384
aF0.091600000000000001
aF0.67000000000000004
aa(lp1551
F0.19719999999999999
aF0.10879999999999999
aF0.69399999999999995
aa(lp1552
F0.1779
aF0.11749999999999999
aF0.7046
aa(lp1553
F0.14660000000000001
aF0.1353
aF0.71809999999999996
aa(lp1554
F0.12180000000000001
aF0.13950000000000001
aF0.73870000000000002
aasg14
(lp1555
(lp1556
F0.66180000000000005
aF0.041500000000000002
aF0.29670000000000002
aa(lp1557
F0.49809999999999999
aF0.051299999999999998
aF0.4506
aa(lp1558
F0.39929999999999999
aF0.067400000000000002
aF0.5333
aa(lp1559
F0.35099999999999998
aF0.073700000000000002
aF0.57530000000000003
aa(lp1560
F0.2913
aF0.088099999999999998
aF0.62060000000000004
aa(lp1561
F0.2591
aF0.097299999999999998
aF0.64359999999999995
aa(lp1562
F0.22600000000000001
aF0.10780000000000001
aF0.66620000000000001
aa(lp1563
F0.2036
aF0.12089999999999999
aF0.67549999999999999
aa(lp1564
F0.185
aF0.12859999999999999
aF0.68640000000000001
aassS'2.9'
p1565
(dp1566
g3
(lp1567
(lp1568
F0.4229
aF0.069000000000000006
aF0.5081
aa(lp1569
F0.25580000000000003
aF0.071400000000000005
aF0.67279999999999995
aa(lp1570
F0.18590000000000001
aF0.076899999999999996
aF0.73719999999999997
aa(lp1571
F0.13020000000000001
aF0.085999999999999993
aF0.78380000000000005
aa(lp1572
F0.10680000000000001
aF0.092999999999999999
aF0.80020000000000002
aa(lp1573
F0.089499999999999996
aF0.106
aF0.80449999999999999
aa(lp1574
F0.073099999999999998
aF0.1163
aF0.81059999999999999
aa(lp1575
F0.063600000000000004
aF0.126
aF0.81040000000000001
aa(lp1576
F0.047500000000000001
aF0.1414
aF0.81110000000000004
aasg14
(lp1577
(lp1578
F0.46129999999999999
aF0.068099999999999994
aF0.47060000000000002
aa(lp1579
F0.309
aF0.063200000000000006
aF0.62780000000000002
aa(lp1580
F0.23469999999999999
aF0.072599999999999998
aF0.69269999999999998
aa(lp1581
F0.1865
aF0.076799999999999993
aF0.73670000000000002
aa(lp1582
F0.16600000000000001
aF0.086800000000000002
aF0.74719999999999998
aa(lp1583
F0.13650000000000001
aF0.1007
aF0.76280000000000003
aa(lp1584
F0.1229
aF0.1079
aF0.76919999999999999
aa(lp1585
F0.1072
aF0.1222
aF0.77059999999999995
aa(lp1586
F0.099500000000000005
aF0.13300000000000001
aF0.76749999999999996
aassS'3.5'
p1587
(dp1588
g3
(lp1589
(lp1590
F0.39169999999999999
aF0.078200000000000006
aF0.53010000000000002
aa(lp1591
F0.25850000000000001
aF0.070800000000000002
aF0.67069999999999996
aa(lp1592
F0.1885
aF0.076600000000000001
aF0.7349
aa(lp1593
F0.14660000000000001
aF0.083599999999999994
aF0.76980000000000004
aa(lp1594
F0.113
aF0.092299999999999993
aF0.79469999999999996
aa(lp1595
F0.097500000000000003
aF0.1041
aF0.7984
aa(lp1596
F0.087099999999999997
aF0.1129
aF0.80000000000000004
aa(lp1597
F0.076300000000000007
aF0.12330000000000001
aF0.8004
aa(lp1598
F0.070300000000000001
aF0.1313
aF0.7984
aasg14
(lp1599
(lp1600
F0.42699999999999999
aF0.067900000000000002
aF0.50509999999999999
aa(lp1601
F0.29649999999999999
aF0.067100000000000007
aF0.63639999999999997
aa(lp1602
F0.2379
aF0.075800000000000006
aF0.68630000000000002
aa(lp1603
F0.19089999999999999
aF0.084000000000000005
aF0.72509999999999997
aa(lp1604
F0.16889999999999999
aF0.091700000000000004
aF0.73939999999999995
aa(lp1605
F0.15129999999999999
aF0.097500000000000003
aF0.75119999999999998
aa(lp1606
F0.13270000000000001
aF0.1067
aF0.76060000000000005
aa(lp1607
F0.1222
aF0.1195
aF0.75829999999999997
aa(lp1608
F0.1123
aF0.128
aF0.75970000000000004
aassS'4.5'
p1609
(dp1610
g3
(lp1611
(lp1612
F0.39439999999999997
aF0.083199999999999996
aF0.52239999999999998
aa(lp1613
F0.26840000000000003
aF0.072400000000000006
aF0.65920000000000001
aa(lp1614
F0.1948
aF0.081000000000000003
aF0.72419999999999995
aa(lp1615
F0.14899999999999999
aF0.090899999999999995
aF0.7601
aa(lp1616
F0.1242
aF0.098400000000000001
aF0.77739999999999998
aa(lp1617
F0.10929999999999999
aF0.1055
aF0.78520000000000001
aa(lp1618
F0.096500000000000002
aF0.1147
aF0.78879999999999995
aa(lp1619
F0.083299999999999999
aF0.122
aF0.79469999999999996
aa(lp1620
F0.072599999999999998
aF0.1356
aF0.79179999999999995
aasg14
(lp1621
(lp1622
F0.43680000000000002
aF0.078
aF0.48520000000000002
aa(lp1623
F0.31209999999999999
aF0.068900000000000003
aF0.61899999999999999
aa(lp1624
F0.24709999999999999
aF0.073400000000000007
aF0.67949999999999999
aa(lp1625
F0.2059
aF0.081299999999999997
aF0.71279999999999999
aa(lp1626
F0.17380000000000001
aF0.091499999999999998
aF0.73470000000000002
aa(lp1627
F0.16270000000000001
aF0.1009
aF0.73640000000000005
aa(lp1628
F0.13320000000000001
aF0.1111
aF0.75570000000000004
aa(lp1629
F0.13100000000000001
aF0.1265
aF0.74250000000000005
aa(lp1630
F0.1187
aF0.13
aF0.75129999999999997
aassS'4.4'
p1631
(dp1632
g3
(lp1633
(lp1634
F0.63590000000000002
aF0.0206
aF0.34350000000000003
aa(lp1635
F0.46289999999999998
aF0.029899999999999999
aF0.50719999999999998
aa(lp1636
F0.37209999999999999
aF0.042299999999999997
aF0.58560000000000001
aa(lp1637
F0.31169999999999998
aF0.048599999999999997
aF0.63970000000000005
aa(lp1638
F0.2787
aF0.063700000000000007
aF0.65759999999999996
aa(lp1639
F0.25180000000000002
aF0.070900000000000005
aF0.67730000000000001
aa(lp1640
F0.23230000000000001
aF0.084699999999999998
aF0.68300000000000005
aa(lp1641
F0.2261
aF0.098299999999999998
aF0.67559999999999998
aa(lp1642
F0.21340000000000001
aF0.10349999999999999
aF0.68310000000000004
aasg14
(lp1643
(lp1644
F0.65439999999999998
aF0.0189
aF0.32669999999999999
aa(lp1645
F0.48999999999999999
aF0.0276
aF0.4824
aa(lp1646
F0.40410000000000001
aF0.036299999999999999
aF0.55959999999999999
aa(lp1647
F0.3458
aF0.045900000000000003
aF0.60829999999999995
aa(lp1648
F0.31979999999999997
aF0.053900000000000003
aF0.62629999999999997
aa(lp1649
F0.29210000000000003
aF0.068000000000000005
aF0.63990000000000002
aa(lp1650
F0.27560000000000001
aF0.075600000000000001
aF0.64880000000000004
aa(lp1651
F0.26290000000000002
aF0.083500000000000005
aF0.65359999999999996
aa(lp1652
F0.2545
aF0.091600000000000001
aF0.65390000000000004
aassS'4.7'
p1653
(dp1654
g3
(lp1655
(lp1656
F0.40410000000000001
aF0.078299999999999995
aF0.51759999999999995
aa(lp1657
F0.26740000000000003
aF0.072700000000000001
aF0.65990000000000004
aa(lp1658
F0.1898
aF0.079200000000000007
aF0.73099999999999998
aa(lp1659
F0.15129999999999999
aF0.082100000000000006
aF0.76659999999999995
aa(lp1660
F0.1134
aF0.098400000000000001
aF0.78820000000000001
aa(lp1661
F0.10059999999999999
aF0.10589999999999999
aF0.79349999999999998
aa(lp1662
F0.086400000000000005
aF0.1149
aF0.79869999999999997
aa(lp1663
F0.070400000000000004
aF0.1215
aF0.80810000000000004
aa(lp1664
F0.058200000000000002
aF0.13689999999999999
aF0.80489999999999995
aasg14
(lp1665
(lp1666
F0.44359999999999999
aF0.070300000000000001
aF0.48609999999999998
aa(lp1667
F0.30640000000000001
aF0.0688
aF0.62480000000000002
aa(lp1668
F0.24709999999999999
aF0.080199999999999994
aF0.67269999999999996
aa(lp1669
F0.19650000000000001
aF0.080799999999999997
aF0.72270000000000001
aa(lp1670
F0.17730000000000001
aF0.084599999999999995
aF0.73809999999999998
aa(lp1671
F0.1472
aF0.1009
aF0.75190000000000001
aa(lp1672
F0.12870000000000001
aF0.098199999999999996
aF0.77310000000000001
aa(lp1673
F0.1186
aF0.11609999999999999
aF0.76529999999999998
aa(lp1674
F0.1061
aF0.1305
aF0.76339999999999997
aassS'4.6'
p1675
(dp1676
g3
(lp1677
(lp1678
F0.3992
aF0.073300000000000004
aF0.52749999999999997
aa(lp1679
F0.25840000000000002
aF0.070099999999999996
aF0.67149999999999999
aa(lp1680
F0.19120000000000001
aF0.082000000000000003
aF0.7268
aa(lp1681
F0.1477
aF0.089999999999999997
aF0.76229999999999998
aa(lp1682
F0.1208
aF0.095000000000000001
aF0.78420000000000001
aa(lp1683
F0.097500000000000003
aF0.1085
aF0.79400000000000004
aa(lp1684
F0.089999999999999997
aF0.11169999999999999
aF0.79830000000000001
aa(lp1685
F0.074200000000000002
aF0.12859999999999999
aF0.79720000000000002
aa(lp1686
F0.071199999999999999
aF0.14219999999999999
aF0.78659999999999997
aasg14
(lp1687
(lp1688
F0.43969999999999998
aF0.071800000000000003
aF0.48849999999999999
aa(lp1689
F0.3196
aF0.066500000000000004
aF0.6139
aa(lp1690
F0.25169999999999998
aF0.074099999999999999
aF0.67420000000000002
aa(lp1691
F0.2044
aF0.075800000000000006
aF0.7198
aa(lp1692
F0.1691
aF0.091800000000000007
aF0.73909999999999998
aa(lp1693
F0.14949999999999999
aF0.095399999999999999
aF0.75509999999999999
aa(lp1694
F0.13789999999999999
aF0.11119999999999999
aF0.75090000000000001
aa(lp1695
F0.12239999999999999
aF0.11310000000000001
aF0.76449999999999996
aa(lp1696
F0.10979999999999999
aF0.1232
aF0.76700000000000002
aassS'5.5'
p1697
(dp1698
g3
(lp1699
(lp1700
F0.65810000000000002
aF0.0195
aF0.32240000000000002
aa(lp1701
F0.49070000000000003
aF0.0309
aF0.47839999999999999
aa(lp1702
F0.38919999999999999
aF0.039699999999999999
aF0.57110000000000005
aa(lp1703
F0.32240000000000002
aF0.050799999999999998
aF0.62680000000000002
aa(lp1704
F0.27729999999999999
aF0.061400000000000003
aF0.6613
aa(lp1705
F0.26000000000000001
aF0.072099999999999997
aF0.66790000000000005
aa(lp1706
F0.24379999999999999
aF0.080399999999999999
aF0.67579999999999996
aa(lp1707
F0.2104
aF0.098299999999999998
aF0.69130000000000003
aa(lp1708
F0.2074
aF0.107
aF0.68559999999999999
aasg14
(lp1709
(lp1710
F0.67949999999999999
aF0.016199999999999999
aF0.30430000000000001
aa(lp1711
F0.51449999999999996
aF0.0269
aF0.45860000000000001
aa(lp1712
F0.4199
aF0.035099999999999999
aF0.54500000000000004
aa(lp1713
F0.35720000000000002
aF0.047600000000000003
aF0.59519999999999995
aa(lp1714
F0.32269999999999999
aF0.0596
aF0.61770000000000003
aa(lp1715
F0.29270000000000002
aF0.0654
aF0.64190000000000003
aa(lp1716
F0.27989999999999998
aF0.078899999999999998
aF0.64119999999999999
aa(lp1717
F0.2626
aF0.084000000000000005
aF0.65339999999999998
aa(lp1718
F0.24640000000000001
aF0.093299999999999994
aF0.6603
aassS'5.6'
p1719
(dp1720
g3
(lp1721
(lp1722
F0.41120000000000001
aF0.076200000000000004
aF0.51259999999999994
aa(lp1723
F0.28179999999999999
aF0.0722
aF0.64600000000000002
aa(lp1724
F0.2056
aF0.085300000000000001
aF0.70909999999999995
aa(lp1725
F0.16200000000000001
aF0.090300000000000005
aF0.74770000000000003
aa(lp1726
F0.1288
aF0.099500000000000005
aF0.77170000000000005
aa(lp1727
F0.11559999999999999
aF0.097699999999999995
aF0.78669999999999995
aa(lp1728
F0.091899999999999996
aF0.1173
aF0.79079999999999995
aa(lp1729
F0.085099999999999995
aF0.12790000000000001
aF0.78700000000000003
aa(lp1730
F0.070900000000000005
aF0.13300000000000001
aF0.79610000000000003
aasg14
(lp1731
(lp1732
F0.44900000000000001
aF0.067400000000000002
aF0.48359999999999997
aa(lp1733
F0.33100000000000002
aF0.071999999999999995
aF0.59699999999999998
aa(lp1734
F0.2576
aF0.075300000000000006
aF0.66710000000000003
aa(lp1735
F0.21690000000000001
aF0.077100000000000002
aF0.70599999999999996
aa(lp1736
F0.1837
aF0.0872
aF0.72909999999999997
aa(lp1737
F0.16120000000000001
aF0.10059999999999999
aF0.73819999999999997
aa(lp1738
F0.1434
aF0.10440000000000001
aF0.75219999999999998
aa(lp1739
F0.1298
aF0.1174
aF0.75280000000000002
aa(lp1740
F0.1245
aF0.1278
aF0.74770000000000003
aassS'5.7'
p1741
(dp1742
g3
(lp1743
(lp1744
F0.43309999999999998
aF0.073700000000000002
aF0.49320000000000003
aa(lp1745
F0.28029999999999999
aF0.071599999999999997
aF0.64810000000000001
aa(lp1746
F0.20760000000000001
aF0.082400000000000001
aF0.70999999999999996
aa(lp1747
F0.15970000000000001
aF0.089099999999999999
aF0.75119999999999998
aa(lp1748
F0.1288
aF0.098799999999999999
aF0.77239999999999998
aa(lp1749
F0.1075
aF0.1148
aF0.77769999999999995
aa(lp1750
F0.088700000000000001
aF0.1103
aF0.80100000000000005
aa(lp1751
F0.080299999999999996
aF0.12520000000000001
aF0.79449999999999998
aa(lp1752
F0.070599999999999996
aF0.1391
aF0.7903
aasg14
(lp1753
(lp1754
F0.46579999999999999
aF0.069400000000000003
aF0.46479999999999999
aa(lp1755
F0.3347
aF0.068500000000000005
aF0.5968
aa(lp1756
F0.25950000000000001
aF0.073300000000000004
aF0.66720000000000002
aa(lp1757
F0.21490000000000001
aF0.078299999999999995
aF0.70679999999999998
aa(lp1758
F0.18210000000000001
aF0.094299999999999995
aF0.72360000000000002
aa(lp1759
F0.15579999999999999
aF0.099299999999999999
aF0.74490000000000001
aa(lp1760
F0.1391
aF0.1125
aF0.74839999999999995
aa(lp1761
F0.1295
aF0.1133
aF0.75719999999999998
aa(lp1762
F0.11700000000000001
aF0.13150000000000001
aF0.75149999999999995
aassS'5.8'
p1763
(dp1764
g3
(lp1765
(lp1766
F0.43099999999999999
aF0.073400000000000007
aF0.49559999999999998
aa(lp1767
F0.2848
aF0.072599999999999998
aF0.64259999999999995
aa(lp1768
F0.2021
aF0.085999999999999993
aF0.71189999999999998
aa(lp1769
F0.15709999999999999
aF0.085900000000000004
aF0.75700000000000001
aa(lp1770
F0.1237
aF0.1018
aF0.77449999999999997
aa(lp1771
F0.097199999999999995
aF0.1041
aF0.79869999999999997
aa(lp1772
F0.081500000000000003
aF0.11550000000000001
aF0.80300000000000005
aa(lp1773
F0.076499999999999999
aF0.12429999999999999
aF0.79920000000000002
aa(lp1774
F0.061400000000000003
aF0.13639999999999999
aF0.80220000000000002
aasg14
(lp1775
(lp1776
F0.47149999999999997
aF0.065299999999999997
aF0.4632
aa(lp1777
F0.33050000000000002
aF0.067100000000000007
aF0.60240000000000005
aa(lp1778
F0.26019999999999999
aF0.071400000000000005
aF0.66839999999999999
aa(lp1779
F0.21199999999999999
aF0.083299999999999999
aF0.70469999999999999
aa(lp1780
F0.17879999999999999
aF0.092399999999999996
aF0.7288
aa(lp1781
F0.15670000000000001
aF0.098500000000000004
aF0.74480000000000002
aa(lp1782
F0.1404
aF0.10920000000000001
aF0.75039999999999996
aa(lp1783
F0.1215
aF0.1182
aF0.76029999999999998
aa(lp1784
F0.1138
aF0.11840000000000001
aF0.76780000000000004
aassS'5.9'
p1785
(dp1786
g3
(lp1787
(lp1788
F0.44350000000000001
aF0.070000000000000007
aF0.48649999999999999
aa(lp1789
F0.28410000000000002
aF0.076300000000000007
aF0.63959999999999995
aa(lp1790
F0.19889999999999999
aF0.081299999999999997
aF0.7198
aa(lp1791
F0.15809999999999999
aF0.0906
aF0.75129999999999997
aa(lp1792
F0.1239
aF0.1021
aF0.77400000000000002
aa(lp1793
F0.097699999999999995
aF0.1026
aF0.79969999999999997
aa(lp1794
F0.084199999999999997
aF0.11269999999999999
aF0.80310000000000004
aa(lp1795
F0.067000000000000004
aF0.1205
aF0.8125
aa(lp1796
F0.056300000000000003
aF0.13519999999999999
aF0.8085
aasg14
(lp1797
(lp1798
F0.48699999999999999
aF0.0625
aF0.45050000000000001
aa(lp1799
F0.33289999999999997
aF0.076100000000000001
aF0.59099999999999997
aa(lp1800
F0.26319999999999999
aF0.073800000000000004
aF0.66300000000000003
aa(lp1801
F0.2064
aF0.081000000000000003
aF0.71260000000000001
aa(lp1802
F0.17879999999999999
aF0.094399999999999998
aF0.7268
aa(lp1803
F0.14960000000000001
aF0.099900000000000003
aF0.75049999999999994
aa(lp1804
F0.13039999999999999
aF0.1071
aF0.76249999999999996
aa(lp1805
F0.1293
aF0.1162
aF0.75449999999999995
aa(lp1806
F0.1067
aF0.12529999999999999
aF0.76800000000000002
aassS'4.9'
p1807
(dp1808
g3
(lp1809
(lp1810
F0.42959999999999998
aF0.070000000000000007
aF0.50039999999999996
aa(lp1811
F0.2676
aF0.071099999999999997
aF0.6613
aa(lp1812
F0.19600000000000001
aF0.075800000000000006
aF0.72819999999999996
aa(lp1813
F0.14380000000000001
aF0.094600000000000004
aF0.76160000000000005
aa(lp1814
F0.1163
aF0.098000000000000004
aF0.78569999999999995
aa(lp1815
F0.089599999999999999
aF0.1079
aF0.80249999999999999
aa(lp1816
F0.077299999999999994
aF0.1176
aF0.80510000000000004
aa(lp1817
F0.058400000000000001
aF0.1198
aF0.82179999999999997
aa(lp1818
F0.056000000000000001
aF0.1328
aF0.81120000000000003
aasg14
(lp1819
(lp1820
F0.4733
aF0.067299999999999999
aF0.45939999999999998
aa(lp1821
F0.31490000000000001
aF0.067599999999999993
aF0.61750000000000005
aa(lp1822
F0.2472
aF0.070800000000000002
aF0.68200000000000005
aa(lp1823
F0.20150000000000001
aF0.082100000000000006
aF0.71640000000000004
aa(lp1824
F0.1618
aF0.092499999999999999
aF0.74570000000000003
aa(lp1825
F0.14410000000000001
aF0.1056
aF0.75029999999999997
aa(lp1826
F0.13059999999999999
aF0.11020000000000001
aF0.75919999999999999
aa(lp1827
F0.11890000000000001
aF0.1142
aF0.76690000000000003
aa(lp1828
F0.1027
aF0.12379999999999999
aF0.77349999999999997
aassS'4.8'
p1829
(dp1830
g3
(lp1831
(lp1832
F0.40639999999999998
aF0.066299999999999998
aF0.52729999999999999
aa(lp1833
F0.26569999999999999
aF0.070900000000000005
aF0.66339999999999999
aa(lp1834
F0.18529999999999999
aF0.079600000000000004
aF0.73509999999999998
aa(lp1835
F0.14560000000000001
aF0.089499999999999996
aF0.76490000000000002
aa(lp1836
F0.11609999999999999
aF0.097199999999999995
aF0.78669999999999995
aa(lp1837
F0.090999999999999998
aF0.1033
aF0.80569999999999997
aa(lp1838
F0.078600000000000003
aF0.1208
aF0.80059999999999998
aa(lp1839
F0.070000000000000007
aF0.12889999999999999
aF0.80110000000000003
aa(lp1840
F0.057799999999999997
aF0.13719999999999999
aF0.80500000000000005
aasg14
(lp1841
(lp1842
F0.44769999999999999
aF0.068900000000000003
aF0.4834
aa(lp1843
F0.31190000000000001
aF0.069199999999999998
aF0.61890000000000001
aa(lp1844
F0.23630000000000001
aF0.072999999999999995
aF0.69069999999999998
aa(lp1845
F0.19539999999999999
aF0.082799999999999999
aF0.7218
aa(lp1846
F0.17780000000000001
aF0.089800000000000005
aF0.73240000000000005
aa(lp1847
F0.15529999999999999
aF0.098500000000000004
aF0.74619999999999997
aa(lp1848
F0.13139999999999999
aF0.10920000000000001
aF0.75939999999999996
aa(lp1849
F0.10929999999999999
aF0.1129
aF0.77780000000000005
aa(lp1850
F0.1027
aF0.1226
aF0.77470000000000006
aassS'2.5'
p1851
(dp1852
g3
(lp1853
(lp1854
F0.35920000000000002
aF0.079000000000000001
aF0.56179999999999997
aa(lp1855
F0.23139999999999999
aF0.071999999999999995
aF0.6966
aa(lp1856
F0.1671
aF0.079799999999999996
aF0.75309999999999999
aa(lp1857
F0.1323
aF0.084400000000000003
aF0.7833
aa(lp1858
F0.1085
aF0.095899999999999999
aF0.79559999999999997
aa(lp1859
F0.090499999999999997
aF0.1042
aF0.80530000000000002
aa(lp1860
F0.076499999999999999
aF0.1128
aF0.81069999999999998
aa(lp1861
F0.066000000000000003
aF0.1241
aF0.80989999999999995
aa(lp1862
F0.060900000000000003
aF0.1331
aF0.80600000000000005
aasg14
(lp1863
(lp1864
F0.41339999999999999
aF0.071900000000000006
aF0.51470000000000005
aa(lp1865
F0.28770000000000001
aF0.0659
aF0.64639999999999997
aa(lp1866
F0.21609999999999999
aF0.073099999999999998
aF0.71079999999999999
aa(lp1867
F0.1774
aF0.077899999999999997
aF0.74470000000000003
aa(lp1868
F0.16789999999999999
aF0.084699999999999998
aF0.74739999999999995
aa(lp1869
F0.13700000000000001
aF0.096699999999999994
aF0.76629999999999998
aa(lp1870
F0.1239
aF0.1081
aF0.76800000000000002
aa(lp1871
F0.1147
aF0.11749999999999999
aF0.76780000000000004
aa(lp1872
F0.099500000000000005
aF0.13109999999999999
aF0.76939999999999997
aassS'2.4'
p1873
(dp1874
g3
(lp1875
(lp1876
F0.35160000000000002
aF0.076799999999999993
aF0.5716
aa(lp1877
F0.23319999999999999
aF0.070400000000000004
aF0.69640000000000002
aa(lp1878
F0.16589999999999999
aF0.072599999999999998
aF0.76149999999999995
aa(lp1879
F0.11990000000000001
aF0.077899999999999997
aF0.80220000000000002
aa(lp1880
F0.1053
aF0.094600000000000004
aF0.80010000000000003
aa(lp1881
F0.086599999999999996
aF0.099299999999999999
aF0.81410000000000005
aa(lp1882
F0.075499999999999998
aF0.1095
aF0.81499999999999995
aa(lp1883
F0.067900000000000002
aF0.1235
aF0.80859999999999999
aa(lp1884
F0.060100000000000001
aF0.12909999999999999
aF0.81079999999999997
aasg14
(lp1885
(lp1886
F0.39650000000000002
aF0.070699999999999999
aF0.53280000000000005
aa(lp1887
F0.28100000000000003
aF0.059999999999999998
aF0.65900000000000003
aa(lp1888
F0.21990000000000001
aF0.0722
aF0.70789999999999997
aa(lp1889
F0.18129999999999999
aF0.077399999999999997
aF0.74129999999999996
aa(lp1890
F0.15570000000000001
aF0.085999999999999993
aF0.75829999999999997
aa(lp1891
F0.1366
aF0.098500000000000004
aF0.76490000000000002
aa(lp1892
F0.12139999999999999
aF0.10390000000000001
aF0.77470000000000006
aa(lp1893
F0.1149
aF0.12
aF0.7651
aa(lp1894
F0.1051
aF0.12429999999999999
aF0.77059999999999995
aassS'13.14'
p1895
(dp1896
g3
(lp1897
(lp1898
F0.67259999999999998
aF0.035200000000000002
aF0.29220000000000002
aa(lp1899
F0.50170000000000003
aF0.048399999999999999
aF0.44990000000000002
aa(lp1900
F0.41310000000000002
aF0.058799999999999998
aF0.52810000000000001
aa(lp1901
F0.36199999999999999
aF0.070599999999999996
aF0.56740000000000002
aa(lp1902
F0.29349999999999998
aF0.086900000000000005
aF0.61960000000000004
aa(lp1903
F0.25609999999999999
aF0.10009999999999999
aF0.64380000000000004
aa(lp1904
F0.2248
aF0.108
aF0.66720000000000002
aa(lp1905
F0.19600000000000001
aF0.1201
aF0.68389999999999995
aa(lp1906
F0.1762
aF0.13139999999999999
aF0.69240000000000002
aasg14
(lp1907
(lp1908
F0.69510000000000005
aF0.0304
aF0.27450000000000002
aa(lp1909
F0.54220000000000002
aF0.045699999999999998
aF0.41210000000000002
aa(lp1910
F0.44400000000000001
aF0.054199999999999998
aF0.50180000000000002
aa(lp1911
F0.38640000000000002
aF0.066000000000000003
aF0.54759999999999998
aa(lp1912
F0.34870000000000001
aF0.071900000000000006
aF0.57940000000000003
aa(lp1913
F0.3165
aF0.084199999999999997
aF0.59930000000000005
aa(lp1914
F0.27560000000000001
aF0.0969
aF0.62749999999999995
aa(lp1915
F0.25569999999999998
aF0.1113
aF0.63300000000000001
aa(lp1916
F0.23400000000000001
aF0.1236
aF0.64239999999999997
aassS'13.13'
p1917
(dp1918
g3
(lp1919
(lp1920
F0.84550000000000003
aF0.010500000000000001
aF0.14399999999999999
aa(lp1921
F0.72629999999999995
aF0.018100000000000002
aF0.25559999999999999
aa(lp1922
F0.63790000000000002
aF0.027799999999999998
aF0.33429999999999999
aa(lp1923
F0.56479999999999997
aF0.041399999999999999
aF0.39379999999999998
aa(lp1924
F0.50780000000000003
aF0.046100000000000002
aF0.4461
aa(lp1925
F0.44550000000000001
aF0.056399999999999999
aF0.49809999999999999
aa(lp1926
F0.40820000000000001
aF0.070900000000000005
aF0.52090000000000003
aa(lp1927
F0.36359999999999998
aF0.086699999999999999
aF0.54969999999999997
aa(lp1928
F0.34279999999999999
aF0.0974
aF0.55979999999999996
aasg14
(lp1929
(lp1930
F0.85329999999999995
aF0.0074000000000000003
aF0.13930000000000001
aa(lp1931
F0.7399
aF0.016799999999999999
aF0.24329999999999999
aa(lp1932
F0.65459999999999996
aF0.0246
aF0.32079999999999997
aa(lp1933
F0.58860000000000001
aF0.030599999999999999
aF0.38080000000000003
aa(lp1934
F0.53439999999999999
aF0.045600000000000002
aF0.41999999999999998
aa(lp1935
F0.48530000000000001
aF0.055899999999999998
aF0.45879999999999999
aa(lp1936
F0.4501
aF0.066699999999999995
aF0.48320000000000002
aa(lp1937
F0.4259
aF0.073099999999999998
aF0.501
aa(lp1938
F0.38490000000000002
aF0.082299999999999998
aF0.53280000000000005
aassS'12.14'
p1939
(dp1940
g3
(lp1941
(lp1942
F0.66620000000000001
aF0.035000000000000003
aF0.29880000000000001
aa(lp1943
F0.49440000000000001
aF0.047399999999999998
aF0.4582
aa(lp1944
F0.3916
aF0.060600000000000001
aF0.54779999999999995
aa(lp1945
F0.32979999999999998
aF0.074999999999999997
aF0.59519999999999995
aa(lp1946
F0.2707
aF0.091300000000000006
aF0.63800000000000001
aa(lp1947
F0.2366
aF0.094100000000000003
aF0.66930000000000001
aa(lp1948
F0.19550000000000001
aF0.1128
aF0.69169999999999998
aa(lp1949
F0.1736
aF0.12509999999999999
aF0.70130000000000003
aa(lp1950
F0.14729999999999999
aF0.13800000000000001
aF0.7147
aasg14
(lp1951
(lp1952
F0.68700000000000006
aF0.032599999999999997
aF0.28039999999999998
aa(lp1953
F0.53800000000000003
aF0.045100000000000001
aF0.41689999999999999
aa(lp1954
F0.4395
aF0.0574
aF0.50309999999999999
aa(lp1955
F0.36870000000000003
aF0.0722
aF0.55910000000000004
aa(lp1956
F0.3236
aF0.079299999999999995
aF0.59709999999999996
aa(lp1957
F0.28939999999999999
aF0.091999999999999998
aF0.61860000000000004
aa(lp1958
F0.25519999999999998
aF0.10730000000000001
aF0.63749999999999996
aa(lp1959
F0.2281
aF0.1188
aF0.65310000000000001
aa(lp1960
F0.2097
aF0.125
aF0.6653
aassS'12.13'
p1961
(dp1962
g3
(lp1963
(lp1964
F0.64049999999999996
aF0.032500000000000001
aF0.32700000000000001
aa(lp1965
F0.47739999999999999
aF0.045699999999999998
aF0.47689999999999999
aa(lp1966
F0.37690000000000001
aF0.064699999999999994
aF0.55840000000000001
aa(lp1967
F0.31619999999999998
aF0.080000000000000002
aF0.6038
aa(lp1968
F0.25919999999999999
aF0.084900000000000003
aF0.65590000000000004
aa(lp1969
F0.22720000000000001
aF0.10299999999999999
aF0.66979999999999995
aa(lp1970
F0.19020000000000001
aF0.1186
aF0.69120000000000004
aa(lp1971
F0.1673
aF0.1221
aF0.71060000000000001
aa(lp1972
F0.1444
aF0.13420000000000001
aF0.72140000000000004
aasg14
(lp1973
(lp1974
F0.65529999999999999
aF0.034700000000000002
aF0.31
aa(lp1975
F0.50949999999999995
aF0.044999999999999998
aF0.44550000000000001
aa(lp1976
F0.42570000000000002
aF0.059700000000000003
aF0.51459999999999995
aa(lp1977
F0.36180000000000001
aF0.070099999999999996
aF0.56810000000000005
aa(lp1978
F0.30740000000000001
aF0.083199999999999996
aF0.60940000000000005
aa(lp1979
F0.27800000000000002
aF0.086999999999999994
aF0.63500000000000001
aa(lp1980
F0.2467
aF0.105
aF0.64829999999999999
aa(lp1981
F0.22589999999999999
aF0.11890000000000001
aF0.6552
aa(lp1982
F0.2029
aF0.1237
aF0.6734
aassS'12.12'
p1983
(dp1984
g3
(lp1985
(lp1986
F0.82550000000000001
aF0.0111
aF0.16339999999999999
aa(lp1987
F0.69430000000000003
aF0.019099999999999999
aF0.28660000000000002
aa(lp1988
F0.60099999999999998
aF0.029999999999999999
aF0.36899999999999999
aa(lp1989
F0.51629999999999998
aF0.040099999999999997
aF0.44359999999999999
aa(lp1990
F0.45329999999999998
aF0.0487
aF0.498
aa(lp1991
F0.40150000000000002
aF0.064299999999999996
aF0.53420000000000001
aa(lp1992
F0.3624
aF0.072900000000000006
aF0.56469999999999998
aa(lp1993
F0.32419999999999999
aF0.088300000000000003
aF0.58750000000000002
aa(lp1994
F0.30719999999999997
aF0.093299999999999994
aF0.59950000000000003
aasg14
(lp1995
(lp1996
F0.83209999999999995
aF0.011299999999999999
aF0.15659999999999999
aa(lp1997
F0.7157
aF0.018700000000000001
aF0.2656
aa(lp1998
F0.62019999999999997
aF0.0276
aF0.35220000000000001
aa(lp1999
F0.54139999999999999
aF0.035000000000000003
aF0.42359999999999998
aa(lp2000
F0.48970000000000002
aF0.046300000000000001
aF0.46400000000000002
aa(lp2001
F0.4466
aF0.054800000000000001
aF0.49859999999999999
aa(lp2002
F0.4143
aF0.066199999999999995
aF0.51949999999999996
aa(lp2003
F0.37609999999999999
aF0.0751
aF0.54879999999999995
aa(lp2004
F0.35580000000000001
aF0.088200000000000001
aF0.55600000000000005
aass.