(dp0
S'7.14'
p1
(dp2
S'unsuited'
p3
(lp4
(lp5
F0.60699999999999998
aF0.049000000000000002
aF0.34399999999999997
aa(lp6
F0.40200000000000002
aF0.073999999999999996
aF0.52400000000000002
aa(lp7
F0.29199999999999998
aF0.081000000000000003
aF0.627
aa(lp8
F0.219
aF0.089999999999999997
aF0.69099999999999995
aa(lp9
F0.186
aF0.079000000000000001
aF0.73499999999999999
aa(lp10
F0.152
aF0.11600000000000001
aF0.73199999999999998
aa(lp11
F0.13600000000000001
aF0.13100000000000001
aF0.73299999999999998
aa(lp12
F0.10199999999999999
aF0.153
aF0.745
aa(lp13
F0.083000000000000004
aF0.14000000000000001
aF0.77700000000000002
aasS'suited'
p14
(lp15
(lp16
F0.628
aF0.053999999999999999
aF0.318
aa(lp17
F0.42699999999999999
aF0.075999999999999998
aF0.497
aa(lp18
F0.372
aF0.073999999999999996
aF0.55400000000000005
aa(lp19
F0.28699999999999998
aF0.075999999999999998
aF0.63700000000000001
aa(lp20
F0.245
aF0.10100000000000001
aF0.65400000000000003
aa(lp21
F0.21099999999999999
aF0.098000000000000004
aF0.69099999999999995
aa(lp22
F0.17799999999999999
aF0.113
aF0.70899999999999996
aa(lp23
F0.183
aF0.114
aF0.70299999999999996
aa(lp24
F0.17299999999999999
aF0.126
aF0.70099999999999996
aassS'7.10'
p25
(dp26
g3
(lp27
(lp28
F0.499
aF0.055
aF0.44600000000000001
aa(lp29
F0.33900000000000002
aF0.075999999999999998
aF0.58499999999999996
aa(lp30
F0.25
aF0.071999999999999995
aF0.67800000000000005
aa(lp31
F0.192
aF0.095000000000000001
aF0.71299999999999997
aa(lp32
F0.14299999999999999
aF0.096000000000000002
aF0.76100000000000001
aa(lp33
F0.11899999999999999
aF0.13100000000000001
aF0.75
aa(lp34
F0.095000000000000001
aF0.106
aF0.79900000000000004
aa(lp35
F0.082000000000000003
aF0.11899999999999999
aF0.79900000000000004
aa(lp36
F0.106
aF0.14599999999999999
aF0.748
aasg14
(lp37
(lp38
F0.53900000000000003
aF0.058000000000000003
aF0.40300000000000002
aa(lp39
F0.375
aF0.050000000000000003
aF0.57499999999999996
aa(lp40
F0.30399999999999999
aF0.072999999999999995
aF0.623
aa(lp41
F0.23699999999999999
aF0.074999999999999997
aF0.68799999999999994
aa(lp42
F0.23000000000000001
aF0.092999999999999999
aF0.67700000000000005
aa(lp43
F0.16900000000000001
aF0.106
aF0.72499999999999998
aa(lp44
F0.14699999999999999
aF0.115
aF0.73799999999999999
aa(lp45
F0.128
aF0.11899999999999999
aF0.753
aa(lp46
F0.12
aF0.129
aF0.751
aassS'7.11'
p47
(dp48
g3
(lp49
(lp50
F0.51300000000000001
aF0.041000000000000002
aF0.44600000000000001
aa(lp51
F0.33600000000000002
aF0.078
aF0.58599999999999997
aa(lp52
F0.23699999999999999
aF0.071999999999999995
aF0.69099999999999995
aa(lp53
F0.16300000000000001
aF0.075999999999999998
aF0.76100000000000001
aa(lp54
F0.152
aF0.079000000000000001
aF0.76900000000000002
aa(lp55
F0.109
aF0.123
aF0.76800000000000002
aa(lp56
F0.095000000000000001
aF0.13100000000000001
aF0.77400000000000002
aa(lp57
F0.085000000000000006
aF0.14000000000000001
aF0.77500000000000002
aa(lp58
F0.072999999999999995
aF0.14999999999999999
aF0.77700000000000002
aasg14
(lp59
(lp60
F0.56000000000000005
aF0.058000000000000003
aF0.38200000000000001
aa(lp61
F0.38200000000000001
aF0.070000000000000007
aF0.54800000000000004
aa(lp62
F0.27700000000000002
aF0.068000000000000005
aF0.65500000000000003
aa(lp63
F0.25900000000000001
aF0.072999999999999995
aF0.66800000000000004
aa(lp64
F0.19600000000000001
aF0.095000000000000001
aF0.70899999999999996
aa(lp65
F0.17399999999999999
aF0.10000000000000001
aF0.72599999999999998
aa(lp66
F0.154
aF0.11799999999999999
aF0.72799999999999998
aa(lp67
F0.14199999999999999
aF0.128
aF0.72999999999999998
aa(lp68
F0.14899999999999999
aF0.129
aF0.72199999999999998
aassS'7.12'
p69
(dp70
g3
(lp71
(lp72
F0.52500000000000002
aF0.066000000000000003
aF0.40899999999999997
aa(lp73
F0.34000000000000002
aF0.065000000000000002
aF0.59499999999999997
aa(lp74
F0.23100000000000001
aF0.074999999999999997
aF0.69399999999999995
aa(lp75
F0.188
aF0.079000000000000001
aF0.73299999999999998
aa(lp76
F0.153
aF0.088999999999999996
aF0.75800000000000001
aa(lp77
F0.124
aF0.112
aF0.76400000000000001
aa(lp78
F0.11600000000000001
aF0.107
aF0.77700000000000002
aa(lp79
F0.089999999999999997
aF0.13500000000000001
aF0.77500000000000002
aa(lp80
F0.082000000000000003
aF0.122
aF0.79600000000000004
aasg14
(lp81
(lp82
F0.56799999999999995
aF0.067000000000000004
aF0.36499999999999999
aa(lp83
F0.39200000000000002
aF0.064000000000000001
aF0.54400000000000004
aa(lp84
F0.32100000000000001
aF0.076999999999999999
aF0.60199999999999998
aa(lp85
F0.26800000000000002
aF0.081000000000000003
aF0.65100000000000002
aa(lp86
F0.219
aF0.081000000000000003
aF0.69999999999999996
aa(lp87
F0.16200000000000001
aF0.11600000000000001
aF0.72199999999999998
aa(lp88
F0.16400000000000001
aF0.104
aF0.73199999999999998
aa(lp89
F0.16800000000000001
aF0.13400000000000001
aF0.69799999999999995
aa(lp90
F0.14099999999999999
aF0.127
aF0.73199999999999998
aassS'7.13'
p91
(dp92
g3
(lp93
(lp94
F0.57899999999999996
aF0.051999999999999998
aF0.36899999999999999
aa(lp95
F0.378
aF0.095000000000000001
aF0.52700000000000002
aa(lp96
F0.29199999999999998
aF0.073999999999999996
aF0.63400000000000001
aa(lp97
F0.20999999999999999
aF0.074999999999999997
aF0.71499999999999997
aa(lp98
F0.192
aF0.092999999999999999
aF0.71499999999999997
aa(lp99
F0.13500000000000001
aF0.126
aF0.73899999999999999
aa(lp100
F0.096000000000000002
aF0.126
aF0.77800000000000002
aa(lp101
F0.106
aF0.14799999999999999
aF0.746
aa(lp102
F0.080000000000000002
aF0.13900000000000001
aF0.78100000000000003
aasg14
(lp103
(lp104
F0.58699999999999997
aF0.048000000000000001
aF0.36499999999999999
aa(lp105
F0.39100000000000001
aF0.074999999999999997
aF0.53400000000000003
aa(lp106
F0.316
aF0.082000000000000003
aF0.60199999999999998
aa(lp107
F0.254
aF0.092999999999999999
aF0.65300000000000002
aa(lp108
F0.23599999999999999
aF0.099000000000000005
aF0.66500000000000004
aa(lp109
F0.188
aF0.098000000000000004
aF0.71399999999999997
aa(lp110
F0.186
aF0.104
aF0.70999999999999996
aa(lp111
F0.16500000000000001
aF0.126
aF0.70899999999999996
aa(lp112
F0.14000000000000001
aF0.153
aF0.70699999999999996
aassS'6.7'
p113
(dp114
g3
(lp115
(lp116
F0.46300000000000002
aF0.051999999999999998
aF0.48499999999999999
aa(lp117
F0.29299999999999998
aF0.070000000000000007
aF0.63700000000000001
aa(lp118
F0.216
aF0.088999999999999996
aF0.69499999999999995
aa(lp119
F0.17299999999999999
aF0.095000000000000001
aF0.73199999999999998
aa(lp120
F0.14699999999999999
aF0.085000000000000006
aF0.76800000000000002
aa(lp121
F0.128
aF0.105
aF0.76700000000000002
aa(lp122
F0.112
aF0.109
aF0.77900000000000003
aa(lp123
F0.097000000000000003
aF0.13400000000000001
aF0.76900000000000002
aa(lp124
F0.075999999999999998
aF0.12
aF0.80400000000000005
aasg14
(lp125
(lp126
F0.48299999999999998
aF0.064000000000000001
aF0.45300000000000001
aa(lp127
F0.32600000000000001
aF0.071999999999999995
aF0.60199999999999998
aa(lp128
F0.28899999999999998
aF0.069000000000000006
aF0.64200000000000002
aa(lp129
F0.25800000000000001
aF0.090999999999999998
aF0.65100000000000002
aa(lp130
F0.20499999999999999
aF0.090999999999999998
aF0.70399999999999996
aa(lp131
F0.17000000000000001
aF0.10199999999999999
aF0.72799999999999998
aa(lp132
F0.157
aF0.126
aF0.71699999999999997
aa(lp133
F0.13700000000000001
aF0.14000000000000001
aF0.72299999999999998
aa(lp134
F0.13900000000000001
aF0.129
aF0.73199999999999998
aassS'6.6'
p135
(dp136
g3
(lp137
(lp138
F0.68300000000000005
aF0.014
aF0.30299999999999999
aa(lp139
F0.51000000000000001
aF0.028000000000000001
aF0.46200000000000002
aa(lp140
F0.42999999999999999
aF0.037999999999999999
aF0.53200000000000003
aa(lp141
F0.35599999999999998
aF0.055
aF0.58899999999999997
aa(lp142
F0.29699999999999999
aF0.044999999999999998
aF0.65800000000000003
aa(lp143
F0.25
aF0.068000000000000005
aF0.68200000000000005
aa(lp144
F0.23599999999999999
aF0.090999999999999998
aF0.67300000000000004
aa(lp145
F0.248
aF0.092999999999999999
aF0.65900000000000003
aa(lp146
F0.22500000000000001
aF0.108
aF0.66700000000000004
aasg14
(lp147
(lp148
F0.71999999999999997
aF0.021000000000000001
aF0.25900000000000001
aa(lp149
F0.54900000000000004
aF0.019
aF0.432
aa(lp150
F0.42799999999999999
aF0.025999999999999999
aF0.54600000000000004
aa(lp151
F0.38300000000000001
aF0.037999999999999999
aF0.57899999999999996
aa(lp152
F0.313
aF0.050999999999999997
aF0.63600000000000001
aa(lp153
F0.29199999999999998
aF0.062
aF0.64600000000000002
aa(lp154
F0.28999999999999998
aF0.078
aF0.63200000000000001
aa(lp155
F0.28100000000000003
aF0.098000000000000004
aF0.621
aa(lp156
F0.23899999999999999
aF0.099000000000000005
aF0.66200000000000003
aassS'7.7'
p157
(dp158
g3
(lp159
(lp160
F0.69799999999999995
aF0.025000000000000001
aF0.27700000000000002
aa(lp161
F0.54200000000000004
aF0.029000000000000001
aF0.42899999999999999
aa(lp162
F0.42699999999999999
aF0.039
aF0.53400000000000003
aa(lp163
F0.39900000000000002
aF0.050000000000000003
aF0.55100000000000005
aa(lp164
F0.30499999999999999
aF0.058999999999999997
aF0.63600000000000001
aa(lp165
F0.25600000000000001
aF0.067000000000000004
aF0.67700000000000005
aa(lp166
F0.248
aF0.089999999999999997
aF0.66200000000000003
aa(lp167
F0.23699999999999999
aF0.10000000000000001
aF0.66300000000000003
aa(lp168
F0.223
aF0.098000000000000004
aF0.67900000000000005
aasg14
(lp169
(lp170
F0.73599999999999999
aF0.017000000000000001
aF0.247
aa(lp171
F0.58599999999999997
aF0.019
aF0.39500000000000002
aa(lp172
F0.44900000000000001
aF0.031
aF0.52000000000000002
aa(lp173
F0.39000000000000001
aF0.053999999999999999
aF0.55600000000000005
aa(lp174
F0.34599999999999997
aF0.058000000000000003
aF0.59599999999999997
aa(lp175
F0.307
aF0.073999999999999996
aF0.61899999999999999
aa(lp176
F0.308
aF0.087999999999999995
aF0.60399999999999998
aa(lp177
F0.30399999999999999
aF0.085999999999999993
aF0.60999999999999999
aa(lp178
F0.22700000000000001
aF0.104
aF0.66900000000000004
aassS'8.14'
p179
(dp180
g3
(lp181
(lp182
F0.60199999999999998
aF0.032000000000000001
aF0.36599999999999999
aa(lp183
F0.439
aF0.070000000000000007
aF0.49099999999999999
aa(lp184
F0.29899999999999999
aF0.075999999999999998
aF0.625
aa(lp185
F0.247
aF0.086999999999999994
aF0.66600000000000004
aa(lp186
F0.188
aF0.094
aF0.71799999999999997
aa(lp187
F0.13900000000000001
aF0.11700000000000001
aF0.74399999999999999
aa(lp188
F0.125
aF0.121
aF0.754
aa(lp189
F0.114
aF0.127
aF0.75900000000000001
aa(lp190
F0.092999999999999999
aF0.14000000000000001
aF0.76700000000000002
aasg14
(lp191
(lp192
F0.64200000000000002
aF0.036999999999999998
aF0.32100000000000001
aa(lp193
F0.44600000000000001
aF0.079000000000000001
aF0.47499999999999998
aa(lp194
F0.38400000000000001
aF0.063
aF0.55300000000000005
aa(lp195
F0.28599999999999998
aF0.085000000000000006
aF0.629
aa(lp196
F0.255
aF0.107
aF0.63800000000000001
aa(lp197
F0.23000000000000001
aF0.105
aF0.66500000000000004
aa(lp198
F0.19900000000000001
aF0.115
aF0.68600000000000005
aa(lp199
F0.16500000000000001
aF0.105
aF0.72999999999999998
aa(lp200
F0.16300000000000001
aF0.128
aF0.70899999999999996
aassS'7.8'
p201
(dp202
g3
(lp203
(lp204
F0.45600000000000002
aF0.069000000000000006
aF0.47499999999999998
aa(lp205
F0.34599999999999997
aF0.071999999999999995
aF0.58199999999999996
aa(lp206
F0.25
aF0.080000000000000002
aF0.67000000000000004
aa(lp207
F0.191
aF0.088999999999999996
aF0.71999999999999997
aa(lp208
F0.157
aF0.088999999999999996
aF0.754
aa(lp209
F0.129
aF0.10000000000000001
aF0.77100000000000002
aa(lp210
F0.112
aF0.11
aF0.77800000000000002
aa(lp211
F0.095000000000000001
aF0.123
aF0.78200000000000003
aa(lp212
F0.078
aF0.12
aF0.80200000000000005
aasg14
(lp213
(lp214
F0.495
aF0.070000000000000007
aF0.435
aa(lp215
F0.36499999999999999
aF0.058999999999999997
aF0.57599999999999996
aa(lp216
F0.30199999999999999
aF0.066000000000000003
aF0.63200000000000001
aa(lp217
F0.23699999999999999
aF0.084000000000000005
aF0.67900000000000005
aa(lp218
F0.188
aF0.086999999999999994
aF0.72499999999999998
aa(lp219
F0.17899999999999999
aF0.11
aF0.71099999999999997
aa(lp220
F0.14399999999999999
aF0.114
aF0.74199999999999999
aa(lp221
F0.14199999999999999
aF0.12
aF0.73799999999999999
aa(lp222
F0.129
aF0.14000000000000001
aF0.73099999999999998
aassS'7.9'
p223
(dp224
g3
(lp225
(lp226
F0.47899999999999998
aF0.053999999999999999
aF0.46700000000000003
aa(lp227
F0.35099999999999998
aF0.062
aF0.58699999999999997
aa(lp228
F0.23400000000000001
aF0.082000000000000003
aF0.68400000000000005
aa(lp229
F0.193
aF0.081000000000000003
aF0.72599999999999998
aa(lp230
F0.14299999999999999
aF0.097000000000000003
aF0.76000000000000001
aa(lp231
F0.14299999999999999
aF0.105
aF0.752
aa(lp232
F0.10000000000000001
aF0.113
aF0.78700000000000003
aa(lp233
F0.095000000000000001
aF0.13100000000000001
aF0.77400000000000002
aa(lp234
F0.091999999999999998
aF0.11799999999999999
aF0.79000000000000004
aasg14
(lp235
(lp236
F0.52300000000000002
aF0.063
aF0.41399999999999998
aa(lp237
F0.372
aF0.081000000000000003
aF0.54700000000000004
aa(lp238
F0.27900000000000003
aF0.076999999999999999
aF0.64400000000000002
aa(lp239
F0.23899999999999999
aF0.071999999999999995
aF0.68899999999999995
aa(lp240
F0.19500000000000001
aF0.10000000000000001
aF0.70499999999999996
aa(lp241
F0.16700000000000001
aF0.094
aF0.73899999999999999
aa(lp242
F0.16900000000000001
aF0.114
aF0.71699999999999997
aa(lp243
F0.157
aF0.108
aF0.73499999999999999
aa(lp244
F0.14299999999999999
aF0.11899999999999999
aF0.73799999999999999
aassS'8.11'
p245
(dp246
g3
(lp247
(lp248
F0.53300000000000003
aF0.052999999999999999
aF0.41399999999999998
aa(lp249
F0.375
aF0.059999999999999998
aF0.56499999999999995
aa(lp250
F0.253
aF0.082000000000000003
aF0.66500000000000004
aa(lp251
F0.20999999999999999
aF0.087999999999999995
aF0.70199999999999996
aa(lp252
F0.17499999999999999
aF0.085999999999999993
aF0.73899999999999999
aa(lp253
F0.13500000000000001
aF0.127
aF0.73799999999999999
aa(lp254
F0.129
aF0.11600000000000001
aF0.755
aa(lp255
F0.094
aF0.128
aF0.77800000000000002
aa(lp256
F0.083000000000000004
aF0.126
aF0.79100000000000004
aasg14
(lp257
(lp258
F0.57999999999999996
aF0.042000000000000003
aF0.378
aa(lp259
F0.41199999999999998
aF0.057000000000000002
aF0.53100000000000003
aa(lp260
F0.315
aF0.075999999999999998
aF0.60899999999999999
aa(lp261
F0.28100000000000003
aF0.079000000000000001
aF0.64000000000000001
aa(lp262
F0.22900000000000001
aF0.10299999999999999
aF0.66800000000000004
aa(lp263
F0.19600000000000001
aF0.098000000000000004
aF0.70599999999999996
aa(lp264
F0.157
aF0.11799999999999999
aF0.72499999999999998
aa(lp265
F0.153
aF0.11799999999999999
aF0.72899999999999998
aa(lp266
F0.11899999999999999
aF0.13600000000000001
aF0.745
aassS'8.10'
p267
(dp268
g3
(lp269
(lp270
F0.53000000000000003
aF0.056000000000000001
aF0.41399999999999998
aa(lp271
F0.35499999999999998
aF0.070000000000000007
aF0.57499999999999996
aa(lp272
F0.26100000000000001
aF0.072999999999999995
aF0.66600000000000004
aa(lp273
F0.222
aF0.094
aF0.68400000000000005
aa(lp274
F0.14699999999999999
aF0.109
aF0.74399999999999999
aa(lp275
F0.127
aF0.115
aF0.75800000000000001
aa(lp276
F0.123
aF0.115
aF0.76200000000000001
aa(lp277
F0.106
aF0.14699999999999999
aF0.747
aa(lp278
F0.082000000000000003
aF0.14199999999999999
aF0.77600000000000002
aasg14
(lp279
(lp280
F0.54200000000000004
aF0.050000000000000003
aF0.40799999999999997
aa(lp281
F0.40500000000000003
aF0.075999999999999998
aF0.51900000000000002
aa(lp282
F0.31
aF0.070999999999999994
aF0.61899999999999999
aa(lp283
F0.255
aF0.085000000000000006
aF0.66000000000000003
aa(lp284
F0.20699999999999999
aF0.092999999999999999
aF0.69999999999999996
aa(lp285
F0.17699999999999999
aF0.105
aF0.71799999999999997
aa(lp286
F0.16600000000000001
aF0.125
aF0.70899999999999996
aa(lp287
F0.16900000000000001
aF0.115
aF0.71599999999999997
aa(lp288
F0.12
aF0.14799999999999999
aF0.73199999999999998
aassS'6.9'
p289
(dp290
g3
(lp291
(lp292
F0.45500000000000002
aF0.068000000000000005
aF0.47699999999999998
aa(lp293
F0.318
aF0.074999999999999997
aF0.60699999999999998
aa(lp294
F0.23999999999999999
aF0.072999999999999995
aF0.68700000000000006
aa(lp295
F0.158
aF0.080000000000000002
aF0.76200000000000001
aa(lp296
F0.13700000000000001
aF0.11899999999999999
aF0.74399999999999999
aa(lp297
F0.115
aF0.11899999999999999
aF0.76600000000000001
aa(lp298
F0.11
aF0.13100000000000001
aF0.75900000000000001
aa(lp299
F0.080000000000000002
aF0.13
aF0.79000000000000004
aa(lp300
F0.070000000000000007
aF0.13400000000000001
aF0.79600000000000004
aasg14
(lp301
(lp302
F0.52800000000000002
aF0.044999999999999998
aF0.42699999999999999
aa(lp303
F0.36299999999999999
aF0.065000000000000002
aF0.57199999999999995
aa(lp304
F0.26000000000000001
aF0.079000000000000001
aF0.66100000000000003
aa(lp305
F0.20300000000000001
aF0.070999999999999994
aF0.72599999999999998
aa(lp306
F0.216
aF0.087999999999999995
aF0.69599999999999995
aa(lp307
F0.183
aF0.106
aF0.71099999999999997
aa(lp308
F0.157
aF0.123
aF0.71999999999999997
aa(lp309
F0.126
aF0.13700000000000001
aF0.73699999999999999
aa(lp310
F0.13700000000000001
aF0.13
aF0.73299999999999998
aassS'6.8'
p311
(dp312
g3
(lp313
(lp314
F0.46400000000000002
aF0.064000000000000001
aF0.47199999999999998
aa(lp315
F0.30499999999999999
aF0.068000000000000005
aF0.627
aa(lp316
F0.20699999999999999
aF0.090999999999999998
aF0.70199999999999996
aa(lp317
F0.14999999999999999
aF0.090999999999999998
aF0.75900000000000001
aa(lp318
F0.14299999999999999
aF0.098000000000000004
aF0.75900000000000001
aa(lp319
F0.095000000000000001
aF0.111
aF0.79400000000000004
aa(lp320
F0.098000000000000004
aF0.11600000000000001
aF0.78600000000000003
aa(lp321
F0.083000000000000004
aF0.124
aF0.79300000000000004
aa(lp322
F0.076999999999999999
aF0.14499999999999999
aF0.77800000000000002
aasg14
(lp323
(lp324
F0.503
aF0.062
aF0.435
aa(lp325
F0.34999999999999998
aF0.073999999999999996
aF0.57599999999999996
aa(lp326
F0.28199999999999997
aF0.085999999999999993
aF0.63200000000000001
aa(lp327
F0.20000000000000001
aF0.069000000000000006
aF0.73099999999999998
aa(lp328
F0.20300000000000001
aF0.091999999999999998
aF0.70499999999999996
aa(lp329
F0.158
aF0.091999999999999998
aF0.75
aa(lp330
F0.153
aF0.094
aF0.753
aa(lp331
F0.158
aF0.111
aF0.73099999999999998
aa(lp332
F0.11799999999999999
aF0.14099999999999999
aF0.74099999999999999
aassS'2.14'
p333
(dp334
g3
(lp335
(lp336
F0.54700000000000004
aF0.055
aF0.39800000000000002
aa(lp337
F0.39100000000000001
aF0.085000000000000006
aF0.52400000000000002
aa(lp338
F0.26400000000000001
aF0.086999999999999994
aF0.64900000000000002
aa(lp339
F0.22
aF0.089999999999999997
aF0.68999999999999995
aa(lp340
F0.16700000000000001
aF0.10100000000000001
aF0.73199999999999998
aa(lp341
F0.124
aF0.11700000000000001
aF0.75900000000000001
aa(lp342
F0.125
aF0.113
aF0.76200000000000001
aa(lp343
F0.106
aF0.12
aF0.77400000000000002
aa(lp344
F0.074999999999999997
aF0.13600000000000001
aF0.78900000000000003
aasg14
(lp345
(lp346
F0.58999999999999997
aF0.058999999999999997
aF0.35099999999999998
aa(lp347
F0.42099999999999999
aF0.050999999999999997
aF0.52800000000000002
aa(lp348
F0.312
aF0.086999999999999994
aF0.60099999999999998
aa(lp349
F0.28000000000000003
aF0.072999999999999995
aF0.64700000000000002
aa(lp350
F0.20799999999999999
aF0.089999999999999997
aF0.70199999999999996
aa(lp351
F0.20300000000000001
aF0.094
aF0.70299999999999996
aa(lp352
F0.16
aF0.10199999999999999
aF0.73799999999999999
aa(lp353
F0.16900000000000001
aF0.11700000000000001
aF0.71399999999999997
aa(lp354
F0.16
aF0.13500000000000001
aF0.70499999999999996
aassS'2.13'
p355
(dp356
g3
(lp357
(lp358
F0.50700000000000001
aF0.070999999999999994
aF0.42199999999999999
aa(lp359
F0.33900000000000002
aF0.065000000000000002
aF0.59599999999999997
aa(lp360
F0.245
aF0.082000000000000003
aF0.67300000000000004
aa(lp361
F0.185
aF0.083000000000000004
aF0.73199999999999998
aa(lp362
F0.14299999999999999
aF0.126
aF0.73099999999999998
aa(lp363
F0.121
aF0.11899999999999999
aF0.76000000000000001
aa(lp364
F0.111
aF0.115
aF0.77400000000000002
aa(lp365
F0.075999999999999998
aF0.13400000000000001
aF0.79000000000000004
aa(lp366
F0.067000000000000004
aF0.152
aF0.78100000000000003
aasg14
(lp367
(lp368
F0.55500000000000005
aF0.052999999999999999
aF0.39200000000000002
aa(lp369
F0.38200000000000001
aF0.069000000000000006
aF0.54900000000000004
aa(lp370
F0.28899999999999998
aF0.072999999999999995
aF0.63800000000000001
aa(lp371
F0.245
aF0.090999999999999998
aF0.66400000000000003
aa(lp372
F0.19700000000000001
aF0.097000000000000003
aF0.70599999999999996
aa(lp373
F0.17299999999999999
aF0.108
aF0.71899999999999997
aa(lp374
F0.154
aF0.13
aF0.71599999999999997
aa(lp375
F0.16200000000000001
aF0.12
aF0.71799999999999997
aa(lp376
F0.128
aF0.158
aF0.71399999999999997
aassS'2.12'
p377
(dp378
g3
(lp379
(lp380
F0.49099999999999999
aF0.059999999999999998
aF0.44900000000000001
aa(lp381
F0.29699999999999999
aF0.084000000000000005
aF0.61899999999999999
aa(lp382
F0.19800000000000001
aF0.084000000000000005
aF0.71799999999999997
aa(lp383
F0.14699999999999999
aF0.080000000000000002
aF0.77300000000000002
aa(lp384
F0.114
aF0.090999999999999998
aF0.79500000000000004
aa(lp385
F0.096000000000000002
aF0.12
aF0.78400000000000003
aa(lp386
F0.073999999999999996
aF0.122
aF0.80400000000000005
aa(lp387
F0.065000000000000002
aF0.14099999999999999
aF0.79400000000000004
aa(lp388
F0.070999999999999994
aF0.125
aF0.80400000000000005
aasg14
(lp389
(lp390
F0.54100000000000004
aF0.064000000000000001
aF0.39500000000000002
aa(lp391
F0.35099999999999998
aF0.073999999999999996
aF0.57499999999999996
aa(lp392
F0.26900000000000002
aF0.070000000000000007
aF0.66100000000000003
aa(lp393
F0.221
aF0.085000000000000006
aF0.69399999999999995
aa(lp394
F0.187
aF0.092999999999999999
aF0.71999999999999997
aa(lp395
F0.16900000000000001
aF0.094
aF0.73699999999999999
aa(lp396
F0.128
aF0.098000000000000004
aF0.77400000000000002
aa(lp397
F0.13100000000000001
aF0.12
aF0.749
aa(lp398
F0.126
aF0.13800000000000001
aF0.73599999999999999
aassS'2.11'
p399
(dp400
g3
(lp401
(lp402
F0.49399999999999999
aF0.050000000000000003
aF0.45600000000000002
aa(lp403
F0.32100000000000001
aF0.068000000000000005
aF0.61099999999999999
aa(lp404
F0.217
aF0.071999999999999995
aF0.71099999999999997
aa(lp405
F0.16200000000000001
aF0.082000000000000003
aF0.75600000000000001
aa(lp406
F0.123
aF0.083000000000000004
aF0.79400000000000004
aa(lp407
F0.10100000000000001
aF0.106
aF0.79300000000000004
aa(lp408
F0.079000000000000001
aF0.11899999999999999
aF0.80200000000000005
aa(lp409
F0.067000000000000004
aF0.13400000000000001
aF0.79900000000000004
aa(lp410
F0.059999999999999998
aF0.123
aF0.81699999999999995
aasg14
(lp411
(lp412
F0.51500000000000001
aF0.060999999999999999
aF0.42399999999999999
aa(lp413
F0.374
aF0.070000000000000007
aF0.55600000000000005
aa(lp414
F0.253
aF0.070999999999999994
aF0.67600000000000005
aa(lp415
F0.21099999999999999
aF0.072999999999999995
aF0.71599999999999997
aa(lp416
F0.182
aF0.089999999999999997
aF0.72799999999999998
aa(lp417
F0.16300000000000001
aF0.112
aF0.72499999999999998
aa(lp418
F0.13300000000000001
aF0.13
aF0.73699999999999999
aa(lp419
F0.115
aF0.122
aF0.76300000000000001
aa(lp420
F0.112
aF0.126
aF0.76200000000000001
aassS'2.10'
p421
(dp422
g3
(lp423
(lp424
F0.44400000000000001
aF0.056000000000000001
aF0.5
aa(lp425
F0.28000000000000003
aF0.076999999999999999
aF0.64300000000000002
aa(lp426
F0.20799999999999999
aF0.064000000000000001
aF0.72799999999999998
aa(lp427
F0.153
aF0.075999999999999998
aF0.77100000000000002
aa(lp428
F0.115
aF0.094
aF0.79100000000000004
aa(lp429
F0.095000000000000001
aF0.111
aF0.79400000000000004
aa(lp430
F0.090999999999999998
aF0.121
aF0.78800000000000003
aa(lp431
F0.067000000000000004
aF0.129
aF0.80400000000000005
aa(lp432
F0.043999999999999997
aF0.12
aF0.83599999999999997
aasg14
(lp433
(lp434
F0.45800000000000002
aF0.058999999999999997
aF0.48299999999999998
aa(lp435
F0.28699999999999998
aF0.070000000000000007
aF0.64300000000000002
aa(lp436
F0.223
aF0.067000000000000004
aF0.70999999999999996
aa(lp437
F0.17799999999999999
aF0.085000000000000006
aF0.73699999999999999
aa(lp438
F0.182
aF0.090999999999999998
aF0.72699999999999998
aa(lp439
F0.11899999999999999
aF0.097000000000000003
aF0.78400000000000003
aa(lp440
F0.13600000000000001
aF0.095000000000000001
aF0.76900000000000002
aa(lp441
F0.12
aF0.125
aF0.755
aa(lp442
F0.121
aF0.13600000000000001
aF0.74299999999999999
aassS'9.12'
p443
(dp444
g3
(lp445
(lp446
F0.57399999999999995
aF0.042999999999999997
aF0.38300000000000001
aa(lp447
F0.39000000000000001
aF0.059999999999999998
aF0.55000000000000004
aa(lp448
F0.31
aF0.079000000000000001
aF0.61099999999999999
aa(lp449
F0.25600000000000001
aF0.078
aF0.66600000000000004
aa(lp450
F0.16
aF0.099000000000000005
aF0.74099999999999999
aa(lp451
F0.14799999999999999
aF0.106
aF0.746
aa(lp452
F0.14000000000000001
aF0.108
aF0.752
aa(lp453
F0.111
aF0.13400000000000001
aF0.755
aa(lp454
F0.10000000000000001
aF0.127
aF0.77300000000000002
aasg14
(lp455
(lp456
F0.60499999999999998
aF0.047
aF0.34799999999999998
aa(lp457
F0.42399999999999999
aF0.073999999999999996
aF0.502
aa(lp458
F0.34000000000000002
aF0.053999999999999999
aF0.60599999999999998
aa(lp459
F0.27200000000000002
aF0.087999999999999995
aF0.64000000000000001
aa(lp460
F0.23899999999999999
aF0.078
aF0.68300000000000005
aa(lp461
F0.22800000000000001
aF0.089999999999999997
aF0.68200000000000005
aa(lp462
F0.16800000000000001
aF0.112
aF0.71999999999999997
aa(lp463
F0.17399999999999999
aF0.11899999999999999
aF0.70699999999999996
aa(lp464
F0.14899999999999999
aF0.13
aF0.72099999999999997
aassS'11.13'
p465
(dp466
g3
(lp467
(lp468
F0.64000000000000001
aF0.029999999999999999
aF0.33000000000000002
aa(lp469
F0.46800000000000003
aF0.042999999999999997
aF0.48899999999999999
aa(lp470
F0.35899999999999999
aF0.067000000000000004
aF0.57399999999999995
aa(lp471
F0.32000000000000001
aF0.079000000000000001
aF0.60099999999999998
aa(lp472
F0.23599999999999999
aF0.098000000000000004
aF0.66600000000000004
aa(lp473
F0.20100000000000001
aF0.12
aF0.67900000000000005
aa(lp474
F0.152
aF0.11
aF0.73799999999999999
aa(lp475
F0.13
aF0.13800000000000001
aF0.73199999999999998
aa(lp476
F0.13200000000000001
aF0.14499999999999999
aF0.72299999999999998
aasg14
(lp477
(lp478
F0.65800000000000003
aF0.033000000000000002
aF0.309
aa(lp479
F0.53200000000000003
aF0.033000000000000002
aF0.435
aa(lp480
F0.378
aF0.069000000000000006
aF0.55300000000000005
aa(lp481
F0.35899999999999999
aF0.070999999999999994
aF0.56999999999999995
aa(lp482
F0.30499999999999999
aF0.076999999999999999
aF0.61799999999999999
aa(lp483
F0.23999999999999999
aF0.107
aF0.65300000000000002
aa(lp484
F0.23000000000000001
aF0.099000000000000005
aF0.67100000000000004
aa(lp485
F0.22
aF0.124
aF0.65600000000000003
aa(lp486
F0.17899999999999999
aF0.127
aF0.69399999999999995
aassS'11.11'
p487
(dp488
g3
(lp489
(lp490
F0.77600000000000002
aF0.0089999999999999993
aF0.215
aa(lp491
F0.64400000000000002
aF0.025000000000000001
aF0.33100000000000002
aa(lp492
F0.56499999999999995
aF0.025000000000000001
aF0.40999999999999998
aa(lp493
F0.46500000000000002
aF0.051999999999999998
aF0.48299999999999998
aa(lp494
F0.42999999999999999
aF0.047
aF0.52300000000000002
aa(lp495
F0.33900000000000002
aF0.057000000000000002
aF0.60399999999999998
aa(lp496
F0.34100000000000003
aF0.073999999999999996
aF0.58499999999999996
aa(lp497
F0.29599999999999999
aF0.083000000000000004
aF0.621
aa(lp498
F0.27000000000000002
aF0.089999999999999997
aF0.64000000000000001
aasg14
(lp499
(lp500
F0.81899999999999995
aF0.0089999999999999993
aF0.17199999999999999
aa(lp501
F0.66200000000000003
aF0.024
aF0.314
aa(lp502
F0.56999999999999995
aF0.025000000000000001
aF0.40500000000000003
aa(lp503
F0.502
aF0.033000000000000002
aF0.46500000000000002
aa(lp504
F0.45500000000000002
aF0.047
aF0.498
aa(lp505
F0.39800000000000002
aF0.057000000000000002
aF0.54500000000000004
aa(lp506
F0.34399999999999997
aF0.070999999999999994
aF0.58499999999999996
aa(lp507
F0.34100000000000003
aF0.085000000000000006
aF0.57399999999999995
aa(lp508
F0.32500000000000001
aF0.087999999999999995
aF0.58699999999999997
aassS'9.14'
p509
(dp510
g3
(lp511
(lp512
F0.58999999999999997
aF0.048000000000000001
aF0.36199999999999999
aa(lp513
F0.43099999999999999
aF0.063
aF0.50600000000000001
aa(lp514
F0.32100000000000001
aF0.064000000000000001
aF0.61499999999999999
aa(lp515
F0.255
aF0.074999999999999997
aF0.67000000000000004
aa(lp516
F0.17699999999999999
aF0.086999999999999994
aF0.73599999999999999
aa(lp517
F0.16400000000000001
aF0.124
aF0.71199999999999997
aa(lp518
F0.14799999999999999
aF0.123
aF0.72899999999999998
aa(lp519
F0.12
aF0.14299999999999999
aF0.73699999999999999
aa(lp520
F0.098000000000000004
aF0.13300000000000001
aF0.76900000000000002
aasg14
(lp521
(lp522
F0.63500000000000001
aF0.050999999999999997
aF0.314
aa(lp523
F0.47799999999999998
aF0.056000000000000001
aF0.46600000000000003
aa(lp524
F0.39000000000000001
aF0.063
aF0.54700000000000004
aa(lp525
F0.28799999999999998
aF0.086999999999999994
aF0.625
aa(lp526
F0.26000000000000001
aF0.090999999999999998
aF0.64900000000000002
aa(lp527
F0.23599999999999999
aF0.112
aF0.65200000000000002
aa(lp528
F0.20499999999999999
aF0.109
aF0.68600000000000005
aa(lp529
F0.19600000000000001
aF0.096000000000000002
aF0.70799999999999996
aa(lp530
F0.156
aF0.14999999999999999
aF0.69399999999999995
aassS'4.11'
p531
(dp532
g3
(lp533
(lp534
F0.47099999999999997
aF0.059999999999999998
aF0.46899999999999997
aa(lp535
F0.30199999999999999
aF0.073999999999999996
aF0.624
aa(lp536
F0.22600000000000001
aF0.083000000000000004
aF0.69099999999999995
aa(lp537
F0.16400000000000001
aF0.085000000000000006
aF0.751
aa(lp538
F0.123
aF0.106
aF0.77100000000000002
aa(lp539
F0.114
aF0.112
aF0.77400000000000002
aa(lp540
F0.087999999999999995
aF0.111
aF0.80100000000000005
aa(lp541
F0.076999999999999999
aF0.14199999999999999
aF0.78100000000000003
aa(lp542
F0.072999999999999995
aF0.14000000000000001
aF0.78700000000000003
aasg14
(lp543
(lp544
F0.52700000000000002
aF0.067000000000000004
aF0.40600000000000003
aa(lp545
F0.34000000000000002
aF0.059999999999999998
aF0.59999999999999998
aa(lp546
F0.27300000000000002
aF0.080000000000000002
aF0.64700000000000002
aa(lp547
F0.191
aF0.106
aF0.70299999999999996
aa(lp548
F0.182
aF0.10299999999999999
aF0.71499999999999997
aa(lp549
F0.17100000000000001
aF0.092999999999999999
aF0.73599999999999999
aa(lp550
F0.14699999999999999
aF0.10100000000000001
aF0.752
aa(lp551
F0.13400000000000001
aF0.098000000000000004
aF0.76800000000000002
aa(lp552
F0.114
aF0.121
aF0.76500000000000001
aassS'4.10'
p553
(dp554
g3
(lp555
(lp556
F0.48999999999999999
aF0.060999999999999999
aF0.44900000000000001
aa(lp557
F0.28399999999999997
aF0.079000000000000001
aF0.63700000000000001
aa(lp558
F0.20699999999999999
aF0.085999999999999993
aF0.70699999999999996
aa(lp559
F0.13200000000000001
aF0.092999999999999999
aF0.77500000000000002
aa(lp560
F0.13700000000000001
aF0.107
aF0.75600000000000001
aa(lp561
F0.089999999999999997
aF0.098000000000000004
aF0.81200000000000006
aa(lp562
F0.074999999999999997
aF0.125
aF0.80000000000000004
aa(lp563
F0.062
aF0.13500000000000001
aF0.80300000000000005
aa(lp564
F0.050000000000000003
aF0.14000000000000001
aF0.81000000000000005
aasg14
(lp565
(lp566
F0.49199999999999999
aF0.059999999999999998
aF0.44800000000000001
aa(lp567
F0.33000000000000002
aF0.070000000000000007
aF0.59999999999999998
aa(lp568
F0.28000000000000003
aF0.088999999999999996
aF0.63100000000000001
aa(lp569
F0.217
aF0.086999999999999994
aF0.69599999999999995
aa(lp570
F0.184
aF0.079000000000000001
aF0.73699999999999999
aa(lp571
F0.14599999999999999
aF0.108
aF0.746
aa(lp572
F0.14999999999999999
aF0.109
aF0.74099999999999999
aa(lp573
F0.121
aF0.106
aF0.77300000000000002
aa(lp574
F0.13100000000000001
aF0.129
aF0.73999999999999999
aassS'4.13'
p575
(dp576
g3
(lp577
(lp578
F0.54800000000000004
aF0.045999999999999999
aF0.40600000000000003
aa(lp579
F0.36199999999999999
aF0.078
aF0.56000000000000005
aa(lp580
F0.24399999999999999
aF0.079000000000000001
aF0.67700000000000005
aa(lp581
F0.17299999999999999
aF0.098000000000000004
aF0.72899999999999998
aa(lp582
F0.151
aF0.10000000000000001
aF0.749
aa(lp583
F0.129
aF0.112
aF0.75900000000000001
aa(lp584
F0.108
aF0.10100000000000001
aF0.79100000000000004
aa(lp585
F0.071999999999999995
aF0.13300000000000001
aF0.79500000000000004
aa(lp586
F0.068000000000000005
aF0.151
aF0.78100000000000003
aasg14
(lp587
(lp588
F0.60799999999999998
aF0.042000000000000003
aF0.34999999999999998
aa(lp589
F0.36799999999999999
aF0.085000000000000006
aF0.54700000000000004
aa(lp590
F0.28699999999999998
aF0.082000000000000003
aF0.63100000000000001
aa(lp591
F0.29399999999999998
aF0.072999999999999995
aF0.63300000000000001
aa(lp592
F0.20200000000000001
aF0.10100000000000001
aF0.69699999999999995
aa(lp593
F0.17899999999999999
aF0.10199999999999999
aF0.71899999999999997
aa(lp594
F0.154
aF0.122
aF0.72399999999999998
aa(lp595
F0.13600000000000001
aF0.14499999999999999
aF0.71899999999999997
aa(lp596
F0.129
aF0.14000000000000001
aF0.73099999999999998
aassS'4.12'
p597
(dp598
g3
(lp599
(lp600
F0.48999999999999999
aF0.063
aF0.44700000000000001
aa(lp601
F0.309
aF0.079000000000000001
aF0.61199999999999999
aa(lp602
F0.217
aF0.081000000000000003
aF0.70199999999999996
aa(lp603
F0.19600000000000001
aF0.092999999999999999
aF0.71099999999999997
aa(lp604
F0.128
aF0.089999999999999997
aF0.78200000000000003
aa(lp605
F0.10199999999999999
aF0.10000000000000001
aF0.79800000000000004
aa(lp606
F0.092999999999999999
aF0.128
aF0.77900000000000003
aa(lp607
F0.078
aF0.13
aF0.79200000000000004
aa(lp608
F0.070000000000000007
aF0.14199999999999999
aF0.78800000000000003
aasg14
(lp609
(lp610
F0.56599999999999995
aF0.056000000000000001
aF0.378
aa(lp611
F0.36599999999999999
aF0.069000000000000006
aF0.56499999999999995
aa(lp612
F0.27100000000000002
aF0.078
aF0.65100000000000002
aa(lp613
F0.222
aF0.10199999999999999
aF0.67600000000000005
aa(lp614
F0.19
aF0.094
aF0.71599999999999997
aa(lp615
F0.17499999999999999
aF0.10100000000000001
aF0.72399999999999998
aa(lp616
F0.161
aF0.108
aF0.73099999999999998
aa(lp617
F0.14399999999999999
aF0.13800000000000001
aF0.71799999999999997
aa(lp618
F0.13
aF0.122
aF0.748
aassS'4.14'
p619
(dp620
g3
(lp621
(lp622
F0.54800000000000004
aF0.058000000000000003
aF0.39400000000000002
aa(lp623
F0.36599999999999999
aF0.067000000000000004
aF0.56699999999999995
aa(lp624
F0.28599999999999998
aF0.080000000000000002
aF0.63400000000000001
aa(lp625
F0.20899999999999999
aF0.082000000000000003
aF0.70899999999999996
aa(lp626
F0.17100000000000001
aF0.098000000000000004
aF0.73099999999999998
aa(lp627
F0.14499999999999999
aF0.108
aF0.747
aa(lp628
F0.10199999999999999
aF0.14599999999999999
aF0.752
aa(lp629
F0.108
aF0.13100000000000001
aF0.76100000000000001
aa(lp630
F0.084000000000000005
aF0.14899999999999999
aF0.76700000000000002
aasg14
(lp631
(lp632
F0.61399999999999999
aF0.053999999999999999
aF0.33200000000000002
aa(lp633
F0.41699999999999998
aF0.080000000000000002
aF0.503
aa(lp634
F0.33300000000000002
aF0.074999999999999997
aF0.59199999999999997
aa(lp635
F0.26300000000000001
aF0.088999999999999996
aF0.64800000000000002
aa(lp636
F0.22500000000000001
aF0.099000000000000005
aF0.67600000000000005
aa(lp637
F0.188
aF0.105
aF0.70699999999999996
aa(lp638
F0.183
aF0.122
aF0.69499999999999995
aa(lp639
F0.16800000000000001
aF0.13400000000000001
aF0.69799999999999995
aa(lp640
F0.16200000000000001
aF0.13900000000000001
aF0.69899999999999995
aassS'3.10'
p641
(dp642
g3
(lp643
(lp644
F0.44600000000000001
aF0.070000000000000007
aF0.48399999999999999
aa(lp645
F0.28100000000000003
aF0.072999999999999995
aF0.64600000000000002
aa(lp646
F0.19600000000000001
aF0.062
aF0.74199999999999999
aa(lp647
F0.14899999999999999
aF0.075999999999999998
aF0.77500000000000002
aa(lp648
F0.115
aF0.087999999999999995
aF0.79700000000000004
aa(lp649
F0.097000000000000003
aF0.11600000000000001
aF0.78700000000000003
aa(lp650
F0.080000000000000002
aF0.112
aF0.80800000000000005
aa(lp651
F0.053999999999999999
aF0.123
aF0.82299999999999995
aa(lp652
F0.035000000000000003
aF0.16700000000000001
aF0.79800000000000004
aasg14
(lp653
(lp654
F0.49399999999999999
aF0.066000000000000003
aF0.44
aa(lp655
F0.32300000000000001
aF0.065000000000000002
aF0.61199999999999999
aa(lp656
F0.24099999999999999
aF0.068000000000000005
aF0.69099999999999995
aa(lp657
F0.214
aF0.062
aF0.72399999999999998
aa(lp658
F0.17499999999999999
aF0.088999999999999996
aF0.73599999999999999
aa(lp659
F0.13500000000000001
aF0.092999999999999999
aF0.77200000000000002
aa(lp660
F0.121
aF0.106
aF0.77300000000000002
aa(lp661
F0.13200000000000001
aF0.128
aF0.73999999999999999
aa(lp662
F0.11799999999999999
aF0.124
aF0.75800000000000001
aassS'3.11'
p663
(dp664
g3
(lp665
(lp666
F0.48899999999999999
aF0.064000000000000001
aF0.44700000000000001
aa(lp667
F0.28899999999999998
aF0.071999999999999995
aF0.63900000000000001
aa(lp668
F0.20200000000000001
aF0.075999999999999998
aF0.72199999999999998
aa(lp669
F0.157
aF0.086999999999999994
aF0.75600000000000001
aa(lp670
F0.14199999999999999
aF0.115
aF0.74299999999999999
aa(lp671
F0.114
aF0.11600000000000001
aF0.77000000000000002
aa(lp672
F0.080000000000000002
aF0.13200000000000001
aF0.78800000000000003
aa(lp673
F0.073999999999999996
aF0.13300000000000001
aF0.79300000000000004
aa(lp674
F0.067000000000000004
aF0.13500000000000001
aF0.79800000000000004
aasg14
(lp675
(lp676
F0.52700000000000002
aF0.051999999999999998
aF0.42099999999999999
aa(lp677
F0.39600000000000002
aF0.059999999999999998
aF0.54400000000000004
aa(lp678
F0.248
aF0.073999999999999996
aF0.67800000000000005
aa(lp679
F0.21199999999999999
aF0.097000000000000003
aF0.69099999999999995
aa(lp680
F0.188
aF0.10199999999999999
aF0.70999999999999996
aa(lp681
F0.161
aF0.10100000000000001
aF0.73799999999999999
aa(lp682
F0.155
aF0.109
aF0.73599999999999999
aa(lp683
F0.14000000000000001
aF0.112
aF0.748
aa(lp684
F0.11700000000000001
aF0.14299999999999999
aF0.73999999999999999
aassS'3.12'
p685
(dp686
g3
(lp687
(lp688
F0.47899999999999998
aF0.068000000000000005
aF0.45300000000000001
aa(lp689
F0.29999999999999999
aF0.068000000000000005
aF0.63200000000000001
aa(lp690
F0.20799999999999999
aF0.094
aF0.69799999999999995
aa(lp691
F0.153
aF0.090999999999999998
aF0.75600000000000001
aa(lp692
F0.13
aF0.095000000000000001
aF0.77500000000000002
aa(lp693
F0.106
aF0.11700000000000001
aF0.77700000000000002
aa(lp694
F0.098000000000000004
aF0.128
aF0.77400000000000002
aa(lp695
F0.070999999999999994
aF0.13900000000000001
aF0.79000000000000004
aa(lp696
F0.063
aF0.14499999999999999
aF0.79200000000000004
aasg14
(lp697
(lp698
F0.53000000000000003
aF0.049000000000000002
aF0.42099999999999999
aa(lp699
F0.36899999999999999
aF0.070000000000000007
aF0.56100000000000005
aa(lp700
F0.27300000000000002
aF0.068000000000000005
aF0.65900000000000003
aa(lp701
F0.214
aF0.076999999999999999
aF0.70899999999999996
aa(lp702
F0.22800000000000001
aF0.091999999999999998
aF0.68000000000000005
aa(lp703
F0.16800000000000001
aF0.10299999999999999
aF0.72899999999999998
aa(lp704
F0.14399999999999999
aF0.11600000000000001
aF0.73999999999999999
aa(lp705
F0.124
aF0.125
aF0.751
aa(lp706
F0.13800000000000001
aF0.13400000000000001
aF0.72799999999999998
aassS'3.13'
p707
(dp708
g3
(lp709
(lp710
F0.505
aF0.053999999999999999
aF0.441
aa(lp711
F0.34000000000000002
aF0.070999999999999994
aF0.58899999999999997
aa(lp712
F0.247
aF0.088999999999999996
aF0.66400000000000003
aa(lp713
F0.193
aF0.090999999999999998
aF0.71599999999999997
aa(lp714
F0.13800000000000001
aF0.114
aF0.748
aa(lp715
F0.13
aF0.10000000000000001
aF0.77000000000000002
aa(lp716
F0.091999999999999998
aF0.11799999999999999
aF0.79000000000000004
aa(lp717
F0.089999999999999997
aF0.13100000000000001
aF0.77900000000000003
aa(lp718
F0.079000000000000001
aF0.14000000000000001
aF0.78100000000000003
aasg14
(lp719
(lp720
F0.57499999999999996
aF0.053999999999999999
aF0.371
aa(lp721
F0.38200000000000001
aF0.058999999999999997
aF0.55900000000000005
aa(lp722
F0.27700000000000002
aF0.072999999999999995
aF0.65000000000000002
aa(lp723
F0.252
aF0.071999999999999995
aF0.67600000000000005
aa(lp724
F0.20599999999999999
aF0.075999999999999998
aF0.71799999999999997
aa(lp725
F0.19800000000000001
aF0.089999999999999997
aF0.71199999999999997
aa(lp726
F0.156
aF0.099000000000000005
aF0.745
aa(lp727
F0.153
aF0.123
aF0.72399999999999998
aa(lp728
F0.111
aF0.14399999999999999
aF0.745
aassS'3.14'
p729
(dp730
g3
(lp731
(lp732
F0.57399999999999995
aF0.058000000000000003
aF0.36799999999999999
aa(lp733
F0.39200000000000002
aF0.081000000000000003
aF0.52700000000000002
aa(lp734
F0.252
aF0.099000000000000005
aF0.64900000000000002
aa(lp735
F0.20300000000000001
aF0.104
aF0.69299999999999995
aa(lp736
F0.182
aF0.108
aF0.70999999999999996
aa(lp737
F0.14199999999999999
aF0.113
aF0.745
aa(lp738
F0.10299999999999999
aF0.13400000000000001
aF0.76300000000000001
aa(lp739
F0.089999999999999997
aF0.13500000000000001
aF0.77500000000000002
aa(lp740
F0.078
aF0.13500000000000001
aF0.78700000000000003
aasg14
(lp741
(lp742
F0.58499999999999996
aF0.051999999999999998
aF0.36299999999999999
aa(lp743
F0.42999999999999999
aF0.073999999999999996
aF0.496
aa(lp744
F0.317
aF0.070999999999999994
aF0.61199999999999999
aa(lp745
F0.25700000000000001
aF0.090999999999999998
aF0.65200000000000002
aa(lp746
F0.23799999999999999
aF0.090999999999999998
aF0.67100000000000004
aa(lp747
F0.20000000000000001
aF0.124
aF0.67600000000000005
aa(lp748
F0.17599999999999999
aF0.11
aF0.71399999999999997
aa(lp749
F0.161
aF0.128
aF0.71099999999999997
aa(lp750
F0.151
aF0.14699999999999999
aF0.70199999999999996
aassS'3.6'
p751
(dp752
g3
(lp753
(lp754
F0.38
aF0.070000000000000007
aF0.55000000000000004
aa(lp755
F0.27000000000000002
aF0.074999999999999997
aF0.65500000000000003
aa(lp756
F0.185
aF0.080000000000000002
aF0.73499999999999999
aa(lp757
F0.124
aF0.10000000000000001
aF0.77600000000000002
aa(lp758
F0.127
aF0.10000000000000001
aF0.77300000000000002
aa(lp759
F0.096000000000000002
aF0.10100000000000001
aF0.80300000000000005
aa(lp760
F0.071999999999999995
aF0.108
aF0.81999999999999995
aa(lp761
F0.071999999999999995
aF0.11899999999999999
aF0.80900000000000005
aa(lp762
F0.048000000000000001
aF0.13200000000000001
aF0.81999999999999995
aasg14
(lp763
(lp764
F0.42799999999999999
aF0.078
aF0.49399999999999999
aa(lp765
F0.28499999999999998
aF0.064000000000000001
aF0.65100000000000002
aa(lp766
F0.224
aF0.072999999999999995
aF0.70299999999999996
aa(lp767
F0.19600000000000001
aF0.080000000000000002
aF0.72399999999999998
aa(lp768
F0.16200000000000001
aF0.085000000000000006
aF0.753
aa(lp769
F0.13200000000000001
aF0.10100000000000001
aF0.76700000000000002
aa(lp770
F0.128
aF0.13
aF0.74199999999999999
aa(lp771
F0.108
aF0.11600000000000001
aF0.77600000000000002
aa(lp772
F0.104
aF0.14699999999999999
aF0.749
aassS'3.7'
p773
(dp774
g3
(lp775
(lp776
F0.40799999999999997
aF0.078
aF0.51400000000000001
aa(lp777
F0.248
aF0.066000000000000003
aF0.68600000000000005
aa(lp778
F0.17599999999999999
aF0.092999999999999999
aF0.73099999999999998
aa(lp779
F0.11
aF0.075999999999999998
aF0.81399999999999995
aa(lp780
F0.11700000000000001
aF0.085000000000000006
aF0.79800000000000004
aa(lp781
F0.088999999999999996
aF0.10199999999999999
aF0.80900000000000005
aa(lp782
F0.083000000000000004
aF0.111
aF0.80600000000000005
aa(lp783
F0.059999999999999998
aF0.14199999999999999
aF0.79800000000000004
aa(lp784
F0.053999999999999999
aF0.13700000000000001
aF0.80900000000000005
aasg14
(lp785
(lp786
F0.43099999999999999
aF0.070000000000000007
aF0.499
aa(lp787
F0.28599999999999998
aF0.078
aF0.63600000000000001
aa(lp788
F0.221
aF0.059999999999999998
aF0.71899999999999997
aa(lp789
F0.17599999999999999
aF0.080000000000000002
aF0.74399999999999999
aa(lp790
F0.17399999999999999
aF0.079000000000000001
aF0.747
aa(lp791
F0.13300000000000001
aF0.083000000000000004
aF0.78400000000000003
aa(lp792
F0.123
aF0.10100000000000001
aF0.77600000000000002
aa(lp793
F0.109
aF0.106
aF0.78500000000000003
aa(lp794
F0.10100000000000001
aF0.11700000000000001
aF0.78200000000000003
aassS'3.4'
p795
(dp796
g3
(lp797
(lp798
F0.375
aF0.078
aF0.54700000000000004
aa(lp799
F0.25700000000000001
aF0.083000000000000004
aF0.66000000000000003
aa(lp800
F0.188
aF0.079000000000000001
aF0.73299999999999998
aa(lp801
F0.14499999999999999
aF0.083000000000000004
aF0.77200000000000002
aa(lp802
F0.125
aF0.107
aF0.76800000000000002
aa(lp803
F0.076999999999999999
aF0.097000000000000003
aF0.82599999999999996
aa(lp804
F0.081000000000000003
aF0.129
aF0.79000000000000004
aa(lp805
F0.076999999999999999
aF0.129
aF0.79400000000000004
aa(lp806
F0.062
aF0.13100000000000001
aF0.80700000000000005
aasg14
(lp807
(lp808
F0.41699999999999998
aF0.064000000000000001
aF0.51900000000000002
aa(lp809
F0.308
aF0.053999999999999999
aF0.63800000000000001
aa(lp810
F0.22700000000000001
aF0.072999999999999995
aF0.69999999999999996
aa(lp811
F0.16800000000000001
aF0.079000000000000001
aF0.753
aa(lp812
F0.156
aF0.085000000000000006
aF0.75900000000000001
aa(lp813
F0.13600000000000001
aF0.084000000000000005
aF0.78000000000000003
aa(lp814
F0.13
aF0.10299999999999999
aF0.76700000000000002
aa(lp815
F0.13
aF0.108
aF0.76200000000000001
aa(lp816
F0.124
aF0.124
aF0.752
aassS'2.8'
p817
(dp818
g3
(lp819
(lp820
F0.39600000000000002
aF0.071999999999999995
aF0.53200000000000003
aa(lp821
F0.23499999999999999
aF0.078
aF0.68700000000000006
aa(lp822
F0.14099999999999999
aF0.081000000000000003
aF0.77800000000000002
aa(lp823
F0.11799999999999999
aF0.090999999999999998
aF0.79100000000000004
aa(lp824
F0.107
aF0.091999999999999998
aF0.80100000000000005
aa(lp825
F0.085999999999999993
aF0.104
aF0.81000000000000005
aa(lp826
F0.069000000000000006
aF0.108
aF0.82299999999999995
aa(lp827
F0.062
aF0.123
aF0.81499999999999995
aa(lp828
F0.057000000000000002
aF0.11600000000000001
aF0.82699999999999996
aasg14
(lp829
(lp830
F0.46899999999999997
aF0.064000000000000001
aF0.46700000000000003
aa(lp831
F0.29299999999999998
aF0.070999999999999994
aF0.63600000000000001
aa(lp832
F0.25
aF0.080000000000000002
aF0.67000000000000004
aa(lp833
F0.182
aF0.085999999999999993
aF0.73199999999999998
aa(lp834
F0.16700000000000001
aF0.088999999999999996
aF0.74399999999999999
aa(lp835
F0.129
aF0.115
aF0.75600000000000001
aa(lp836
F0.123
aF0.089999999999999997
aF0.78700000000000003
aa(lp837
F0.097000000000000003
aF0.112
aF0.79100000000000004
aa(lp838
F0.107
aF0.14099999999999999
aF0.752
aassS'3.3'
p839
(dp840
g3
(lp841
(lp842
F0.60099999999999998
aF0.025000000000000001
aF0.374
aa(lp843
F0.437
aF0.029000000000000001
aF0.53400000000000003
aa(lp844
F0.33400000000000002
aF0.037999999999999999
aF0.628
aa(lp845
F0.26900000000000002
aF0.047
aF0.68400000000000005
aa(lp846
F0.254
aF0.065000000000000002
aF0.68100000000000005
aa(lp847
F0.23999999999999999
aF0.062
aF0.69799999999999995
aa(lp848
F0.22500000000000001
aF0.090999999999999998
aF0.68400000000000005
aa(lp849
F0.23499999999999999
aF0.106
aF0.65900000000000003
aa(lp850
F0.20399999999999999
aF0.11700000000000001
aF0.67900000000000005
aasg14
(lp851
(lp852
F0.63700000000000001
aF0.017000000000000001
aF0.34599999999999997
aa(lp853
F0.47399999999999998
aF0.031
aF0.495
aa(lp854
F0.375
aF0.029000000000000001
aF0.59599999999999997
aa(lp855
F0.32700000000000001
aF0.043999999999999997
aF0.629
aa(lp856
F0.311
aF0.053999999999999999
aF0.63500000000000001
aa(lp857
F0.30099999999999999
aF0.058000000000000003
aF0.64100000000000001
aa(lp858
F0.26000000000000001
aF0.083000000000000004
aF0.65700000000000003
aa(lp859
F0.26500000000000001
aF0.091999999999999998
aF0.64300000000000002
aa(lp860
F0.253
aF0.086999999999999994
aF0.66000000000000003
aassS'2.3'
p861
(dp862
g3
(lp863
(lp864
F0.35299999999999998
aF0.071999999999999995
aF0.57499999999999996
aa(lp865
F0.222
aF0.058999999999999997
aF0.71899999999999997
aa(lp866
F0.16700000000000001
aF0.074999999999999997
aF0.75800000000000001
aa(lp867
F0.108
aF0.089999999999999997
aF0.80200000000000005
aa(lp868
F0.079000000000000001
aF0.10299999999999999
aF0.81799999999999995
aa(lp869
F0.086999999999999994
aF0.105
aF0.80800000000000005
aa(lp870
F0.062
aF0.10199999999999999
aF0.83599999999999997
aa(lp871
F0.062
aF0.127
aF0.81100000000000005
aa(lp872
F0.049000000000000002
aF0.13400000000000001
aF0.81699999999999995
aasg14
(lp873
(lp874
F0.38300000000000001
aF0.079000000000000001
aF0.53800000000000003
aa(lp875
F0.26000000000000001
aF0.073999999999999996
aF0.66600000000000004
aa(lp876
F0.222
aF0.089999999999999997
aF0.68799999999999994
aa(lp877
F0.17699999999999999
aF0.085999999999999993
aF0.73699999999999999
aa(lp878
F0.152
aF0.096000000000000002
aF0.752
aa(lp879
F0.125
aF0.089999999999999997
aF0.78500000000000003
aa(lp880
F0.124
aF0.11600000000000001
aF0.76000000000000001
aa(lp881
F0.12
aF0.105
aF0.77500000000000002
aa(lp882
F0.10000000000000001
aF0.121
aF0.77900000000000003
aassS'2.2'
p883
(dp884
g3
(lp885
(lp886
F0.58399999999999996
aF0.021000000000000001
aF0.39500000000000002
aa(lp887
F0.42999999999999999
aF0.036999999999999998
aF0.53300000000000003
aa(lp888
F0.28699999999999998
aF0.042000000000000003
aF0.67100000000000004
aa(lp889
F0.29699999999999999
aF0.053999999999999999
aF0.64900000000000002
aa(lp890
F0.253
aF0.064000000000000001
aF0.68300000000000005
aa(lp891
F0.23400000000000001
aF0.070999999999999994
aF0.69499999999999995
aa(lp892
F0.22500000000000001
aF0.062
aF0.71299999999999997
aa(lp893
F0.215
aF0.10000000000000001
aF0.68500000000000005
aa(lp894
F0.216
aF0.11700000000000001
aF0.66700000000000004
aasg14
(lp895
(lp896
F0.60299999999999998
aF0.025999999999999999
aF0.371
aa(lp897
F0.45400000000000001
aF0.031
aF0.51500000000000001
aa(lp898
F0.371
aF0.048000000000000001
aF0.58099999999999996
aa(lp899
F0.34499999999999997
aF0.044999999999999998
aF0.60999999999999999
aa(lp900
F0.309
aF0.056000000000000001
aF0.63500000000000001
aa(lp901
F0.28199999999999997
aF0.059999999999999998
aF0.65800000000000003
aa(lp902
F0.28000000000000003
aF0.070999999999999994
aF0.64900000000000002
aa(lp903
F0.24099999999999999
aF0.083000000000000004
aF0.67600000000000005
aa(lp904
F0.26000000000000001
aF0.092999999999999999
aF0.64700000000000002
aassS'2.7'
p905
(dp906
g3
(lp907
(lp908
F0.38600000000000001
aF0.068000000000000005
aF0.54600000000000004
aa(lp909
F0.255
aF0.069000000000000006
aF0.67600000000000005
aa(lp910
F0.158
aF0.082000000000000003
aF0.76000000000000001
aa(lp911
F0.112
aF0.073999999999999996
aF0.81399999999999995
aa(lp912
F0.082000000000000003
aF0.096000000000000002
aF0.82199999999999995
aa(lp913
F0.085999999999999993
aF0.106
aF0.80800000000000005
aa(lp914
F0.074999999999999997
aF0.123
aF0.80200000000000005
aa(lp915
F0.057000000000000002
aF0.12
aF0.82299999999999995
aa(lp916
F0.041000000000000002
aF0.13800000000000001
aF0.82099999999999995
aasg14
(lp917
(lp918
F0.41099999999999998
aF0.075999999999999998
aF0.51300000000000001
aa(lp919
F0.25800000000000001
aF0.065000000000000002
aF0.67700000000000005
aa(lp920
F0.222
aF0.063
aF0.71499999999999997
aa(lp921
F0.188
aF0.064000000000000001
aF0.748
aa(lp922
F0.14199999999999999
aF0.082000000000000003
aF0.77600000000000002
aa(lp923
F0.11700000000000001
aF0.089999999999999997
aF0.79300000000000004
aa(lp924
F0.109
aF0.089999999999999997
aF0.80100000000000005
aa(lp925
F0.109
aF0.098000000000000004
aF0.79300000000000004
aa(lp926
F0.11700000000000001
aF0.126
aF0.75700000000000001
aassS'2.6'
p927
(dp928
g3
(lp929
(lp930
F0.35899999999999999
aF0.076999999999999999
aF0.56399999999999995
aa(lp931
F0.23599999999999999
aF0.058999999999999997
aF0.70499999999999996
aa(lp932
F0.17299999999999999
aF0.079000000000000001
aF0.748
aa(lp933
F0.13200000000000001
aF0.081000000000000003
aF0.78700000000000003
aa(lp934
F0.104
aF0.079000000000000001
aF0.81699999999999995
aa(lp935
F0.086999999999999994
aF0.11600000000000001
aF0.79700000000000004
aa(lp936
F0.069000000000000006
aF0.114
aF0.81699999999999995
aa(lp937
F0.060999999999999999
aF0.11899999999999999
aF0.81999999999999995
aa(lp938
F0.052999999999999999
aF0.123
aF0.82399999999999995
aasg14
(lp939
(lp940
F0.45800000000000002
aF0.062
aF0.47999999999999998
aa(lp941
F0.26300000000000001
aF0.069000000000000006
aF0.66800000000000004
aa(lp942
F0.219
aF0.082000000000000003
aF0.69899999999999995
aa(lp943
F0.17100000000000001
aF0.086999999999999994
aF0.74199999999999999
aa(lp944
F0.17100000000000001
aF0.078
aF0.751
aa(lp945
F0.11799999999999999
aF0.086999999999999994
aF0.79500000000000004
aa(lp946
F0.105
aF0.098000000000000004
aF0.79700000000000004
aa(lp947
F0.127
aF0.125
aF0.748
aa(lp948
F0.10100000000000001
aF0.151
aF0.748
aassS'3.8'
p949
(dp950
g3
(lp951
(lp952
F0.42499999999999999
aF0.079000000000000001
aF0.496
aa(lp953
F0.26200000000000001
aF0.066000000000000003
aF0.67200000000000004
aa(lp954
F0.157
aF0.080000000000000002
aF0.76300000000000001
aa(lp955
F0.126
aF0.088999999999999996
aF0.78500000000000003
aa(lp956
F0.10299999999999999
aF0.108
aF0.78900000000000003
aa(lp957
F0.10100000000000001
aF0.104
aF0.79500000000000004
aa(lp958
F0.070999999999999994
aF0.109
aF0.81999999999999995
aa(lp959
F0.063
aF0.121
aF0.81599999999999995
aa(lp960
F0.050000000000000003
aF0.127
aF0.82299999999999995
aasg14
(lp961
(lp962
F0.441
aF0.051999999999999998
aF0.50700000000000001
aa(lp963
F0.30199999999999999
aF0.071999999999999995
aF0.626
aa(lp964
F0.23999999999999999
aF0.073999999999999996
aF0.68600000000000005
aa(lp965
F0.20100000000000001
aF0.069000000000000006
aF0.72999999999999998
aa(lp966
F0.13500000000000001
aF0.083000000000000004
aF0.78200000000000003
aa(lp967
F0.14599999999999999
aF0.075999999999999998
aF0.77800000000000002
aa(lp968
F0.126
aF0.114
aF0.76000000000000001
aa(lp969
F0.111
aF0.109
aF0.78000000000000003
aa(lp970
F0.107
aF0.14699999999999999
aF0.746
aassS'3.9'
p971
(dp972
g3
(lp973
(lp974
F0.438
aF0.075999999999999998
aF0.48599999999999999
aa(lp975
F0.26600000000000001
aF0.062
aF0.67200000000000004
aa(lp976
F0.187
aF0.078
aF0.73499999999999999
aa(lp977
F0.13900000000000001
aF0.085999999999999993
aF0.77500000000000002
aa(lp978
F0.10199999999999999
aF0.092999999999999999
aF0.80500000000000005
aa(lp979
F0.086999999999999994
aF0.099000000000000005
aF0.81399999999999995
aa(lp980
F0.080000000000000002
aF0.113
aF0.80700000000000005
aa(lp981
F0.062
aF0.13100000000000001
aF0.80700000000000005
aa(lp982
F0.042000000000000003
aF0.128
aF0.82999999999999996
aasg14
(lp983
(lp984
F0.47099999999999997
aF0.071999999999999995
aF0.45700000000000002
aa(lp985
F0.32700000000000001
aF0.071999999999999995
aF0.60099999999999998
aa(lp986
F0.218
aF0.084000000000000005
aF0.69799999999999995
aa(lp987
F0.216
aF0.076999999999999999
aF0.70699999999999996
aa(lp988
F0.17499999999999999
aF0.094
aF0.73099999999999998
aa(lp989
F0.155
aF0.10199999999999999
aF0.74299999999999999
aa(lp990
F0.13400000000000001
aF0.112
aF0.754
aa(lp991
F0.092999999999999999
aF0.13200000000000001
aF0.77500000000000002
aa(lp992
F0.112
aF0.126
aF0.76200000000000001
aassS'8.13'
p993
(dp994
g3
(lp995
(lp996
F0.53400000000000003
aF0.057000000000000002
aF0.40899999999999997
aa(lp997
F0.38400000000000001
aF0.069000000000000006
aF0.54700000000000004
aa(lp998
F0.28699999999999998
aF0.072999999999999995
aF0.64000000000000001
aa(lp999
F0.19800000000000001
aF0.070999999999999994
aF0.73099999999999998
aa(lp1000
F0.193
aF0.111
aF0.69599999999999995
aa(lp1001
F0.13500000000000001
aF0.10199999999999999
aF0.76300000000000001
aa(lp1002
F0.13200000000000001
aF0.108
aF0.76000000000000001
aa(lp1003
F0.10199999999999999
aF0.122
aF0.77600000000000002
aa(lp1004
F0.080000000000000002
aF0.13800000000000001
aF0.78200000000000003
aasg14
(lp1005
(lp1006
F0.61899999999999999
aF0.037999999999999999
aF0.34300000000000003
aa(lp1007
F0.44800000000000001
aF0.053999999999999999
aF0.498
aa(lp1008
F0.314
aF0.076999999999999999
aF0.60899999999999999
aa(lp1009
F0.27800000000000002
aF0.097000000000000003
aF0.625
aa(lp1010
F0.248
aF0.086999999999999994
aF0.66500000000000004
aa(lp1011
F0.20300000000000001
aF0.090999999999999998
aF0.70599999999999996
aa(lp1012
F0.188
aF0.114
aF0.69799999999999995
aa(lp1013
F0.14899999999999999
aF0.113
aF0.73799999999999999
aa(lp1014
F0.156
aF0.13800000000000001
aF0.70599999999999996
aassS'8.12'
p1015
(dp1016
g3
(lp1017
(lp1018
F0.54900000000000004
aF0.047
aF0.40400000000000003
aa(lp1019
F0.35399999999999998
aF0.071999999999999995
aF0.57399999999999995
aa(lp1020
F0.26900000000000002
aF0.085000000000000006
aF0.64600000000000002
aa(lp1021
F0.20899999999999999
aF0.091999999999999998
aF0.69899999999999995
aa(lp1022
F0.17299999999999999
aF0.088999999999999996
aF0.73799999999999999
aa(lp1023
F0.14799999999999999
aF0.11
aF0.74199999999999999
aa(lp1024
F0.106
aF0.114
aF0.78000000000000003
aa(lp1025
F0.10000000000000001
aF0.122
aF0.77800000000000002
aa(lp1026
F0.094
aF0.13600000000000001
aF0.77000000000000002
aasg14
(lp1027
(lp1028
F0.58699999999999997
aF0.051999999999999998
aF0.36099999999999999
aa(lp1029
F0.39000000000000001
aF0.060999999999999999
aF0.54900000000000004
aa(lp1030
F0.32000000000000001
aF0.073999999999999996
aF0.60599999999999998
aa(lp1031
F0.26900000000000002
aF0.080000000000000002
aF0.65100000000000002
aa(lp1032
F0.23499999999999999
aF0.084000000000000005
aF0.68100000000000005
aa(lp1033
F0.216
aF0.109
aF0.67500000000000004
aa(lp1034
F0.17999999999999999
aF0.111
aF0.70899999999999996
aa(lp1035
F0.17100000000000001
aF0.112
aF0.71699999999999997
aa(lp1036
F0.13800000000000001
aF0.129
aF0.73299999999999998
aassS'11.14'
p1037
(dp1038
g3
(lp1039
(lp1040
F0.66400000000000003
aF0.040000000000000001
aF0.29599999999999999
aa(lp1041
F0.47099999999999997
aF0.048000000000000001
aF0.48099999999999998
aa(lp1042
F0.379
aF0.066000000000000003
aF0.55500000000000005
aa(lp1043
F0.317
aF0.072999999999999995
aF0.60999999999999999
aa(lp1044
F0.254
aF0.082000000000000003
aF0.66400000000000003
aa(lp1045
F0.23000000000000001
aF0.099000000000000005
aF0.67100000000000004
aa(lp1046
F0.19600000000000001
aF0.13400000000000001
aF0.67000000000000004
aa(lp1047
F0.14799999999999999
aF0.11600000000000001
aF0.73599999999999999
aa(lp1048
F0.14399999999999999
aF0.121
aF0.73499999999999999
aasg14
(lp1049
(lp1050
F0.68999999999999995
aF0.032000000000000001
aF0.27800000000000002
aa(lp1051
F0.51800000000000002
aF0.045999999999999999
aF0.436
aa(lp1052
F0.39900000000000002
aF0.058000000000000003
aF0.54300000000000004
aa(lp1053
F0.33500000000000002
aF0.088999999999999996
aF0.57599999999999996
aa(lp1054
F0.29299999999999998
aF0.082000000000000003
aF0.625
aa(lp1055
F0.28199999999999997
aF0.079000000000000001
aF0.63900000000000001
aa(lp1056
F0.22600000000000001
aF0.121
aF0.65300000000000002
aa(lp1057
F0.224
aF0.13
aF0.64600000000000002
aa(lp1058
F0.20499999999999999
aF0.13400000000000001
aF0.66100000000000003
aassS'11.12'
p1059
(dp1060
g3
(lp1061
(lp1062
F0.622
aF0.041000000000000002
aF0.33700000000000002
aa(lp1063
F0.40999999999999998
aF0.074999999999999997
aF0.51500000000000001
aa(lp1064
F0.36199999999999999
aF0.065000000000000002
aF0.57299999999999995
aa(lp1065
F0.25600000000000001
aF0.079000000000000001
aF0.66500000000000004
aa(lp1066
F0.24299999999999999
aF0.105
aF0.65200000000000002
aa(lp1067
F0.182
aF0.104
aF0.71399999999999997
aa(lp1068
F0.17799999999999999
aF0.098000000000000004
aF0.72399999999999998
aa(lp1069
F0.14699999999999999
aF0.10299999999999999
aF0.75
aa(lp1070
F0.13
aF0.13100000000000001
aF0.73899999999999999
aasg14
(lp1071
(lp1072
F0.64000000000000001
aF0.048000000000000001
aF0.312
aa(lp1073
F0.48799999999999999
aF0.063
aF0.44900000000000001
aa(lp1074
F0.377
aF0.057000000000000002
aF0.56599999999999995
aa(lp1075
F0.33800000000000002
aF0.076999999999999999
aF0.58499999999999996
aa(lp1076
F0.29699999999999999
aF0.067000000000000004
aF0.63600000000000001
aa(lp1077
F0.249
aF0.112
aF0.63900000000000001
aa(lp1078
F0.22900000000000001
aF0.107
aF0.66400000000000003
aa(lp1079
F0.20300000000000001
aF0.122
aF0.67500000000000004
aa(lp1080
F0.16400000000000001
aF0.124
aF0.71199999999999997
aassS'9.13'
p1081
(dp1082
g3
(lp1083
(lp1084
F0.628
aF0.036999999999999998
aF0.33500000000000002
aa(lp1085
F0.42699999999999999
aF0.058999999999999997
aF0.51400000000000001
aa(lp1086
F0.33500000000000002
aF0.060999999999999999
aF0.60399999999999998
aa(lp1087
F0.22900000000000001
aF0.086999999999999994
aF0.68400000000000005
aa(lp1088
F0.19700000000000001
aF0.091999999999999998
aF0.71099999999999997
aa(lp1089
F0.186
aF0.10199999999999999
aF0.71199999999999997
aa(lp1090
F0.14399999999999999
aF0.11700000000000001
aF0.73899999999999999
aa(lp1091
F0.12
aF0.14099999999999999
aF0.73899999999999999
aa(lp1092
F0.083000000000000004
aF0.14399999999999999
aF0.77300000000000002
aasg14
(lp1093
(lp1094
F0.64100000000000001
aF0.029000000000000001
aF0.33000000000000002
aa(lp1095
F0.44600000000000001
aF0.060999999999999999
aF0.49299999999999999
aa(lp1096
F0.35799999999999998
aF0.072999999999999995
aF0.56899999999999995
aa(lp1097
F0.28899999999999998
aF0.081000000000000003
aF0.63
aa(lp1098
F0.249
aF0.10000000000000001
aF0.65100000000000002
aa(lp1099
F0.223
aF0.10199999999999999
aF0.67500000000000004
aa(lp1100
F0.19500000000000001
aF0.097000000000000003
aF0.70799999999999996
aa(lp1101
F0.20499999999999999
aF0.104
aF0.69099999999999995
aa(lp1102
F0.151
aF0.151
aF0.69799999999999995
aassS'9.10'
p1103
(dp1104
g3
(lp1105
(lp1106
F0.54800000000000004
aF0.037999999999999999
aF0.41399999999999998
aa(lp1107
F0.378
aF0.050999999999999997
aF0.57099999999999995
aa(lp1108
F0.29299999999999998
aF0.083000000000000004
aF0.624
aa(lp1109
F0.20399999999999999
aF0.073999999999999996
aF0.72199999999999998
aa(lp1110
F0.16
aF0.11600000000000001
aF0.72399999999999998
aa(lp1111
F0.16700000000000001
aF0.124
aF0.70899999999999996
aa(lp1112
F0.157
aF0.122
aF0.72099999999999997
aa(lp1113
F0.122
aF0.128
aF0.75
aa(lp1114
F0.108
aF0.129
aF0.76300000000000001
aasg14
(lp1115
(lp1116
F0.56599999999999995
aF0.042000000000000003
aF0.39200000000000002
aa(lp1117
F0.42699999999999999
aF0.050999999999999997
aF0.52200000000000002
aa(lp1118
F0.33700000000000002
aF0.063
aF0.59999999999999998
aa(lp1119
F0.27900000000000003
aF0.080000000000000002
aF0.64100000000000001
aa(lp1120
F0.23300000000000001
aF0.083000000000000004
aF0.68400000000000005
aa(lp1121
F0.19500000000000001
aF0.096000000000000002
aF0.70899999999999996
aa(lp1122
F0.17100000000000001
aF0.107
aF0.72199999999999998
aa(lp1123
F0.17299999999999999
aF0.129
aF0.69799999999999995
aa(lp1124
F0.14099999999999999
aF0.13600000000000001
aF0.72299999999999998
aassS'9.11'
p1125
(dp1126
g3
(lp1127
(lp1128
F0.51400000000000001
aF0.055
aF0.43099999999999999
aa(lp1129
F0.41099999999999998
aF0.063
aF0.52600000000000002
aa(lp1130
F0.26500000000000001
aF0.074999999999999997
aF0.66000000000000003
aa(lp1131
F0.23400000000000001
aF0.063
aF0.70299999999999996
aa(lp1132
F0.189
aF0.094
aF0.71699999999999997
aa(lp1133
F0.14499999999999999
aF0.107
aF0.748
aa(lp1134
F0.14199999999999999
aF0.123
aF0.73499999999999999
aa(lp1135
F0.11
aF0.122
aF0.76800000000000002
aa(lp1136
F0.11799999999999999
aF0.11899999999999999
aF0.76300000000000001
aasg14
(lp1137
(lp1138
F0.54900000000000004
aF0.050000000000000003
aF0.40100000000000002
aa(lp1139
F0.41899999999999998
aF0.053999999999999999
aF0.52700000000000002
aa(lp1140
F0.34300000000000003
aF0.062
aF0.59499999999999997
aa(lp1141
F0.28100000000000003
aF0.065000000000000002
aF0.65400000000000003
aa(lp1142
F0.24199999999999999
aF0.085999999999999993
aF0.67200000000000004
aa(lp1143
F0.219
aF0.10100000000000001
aF0.68000000000000005
aa(lp1144
F0.17199999999999999
aF0.106
aF0.72199999999999998
aa(lp1145
F0.17299999999999999
aF0.11700000000000001
aF0.70999999999999996
aa(lp1146
F0.14399999999999999
aF0.13200000000000001
aF0.72399999999999998
aassS'14.14'
p1147
(dp1148
g3
(lp1149
(lp1150
F0.89300000000000002
aF0.0050000000000000001
aF0.10199999999999999
aa(lp1151
F0.753
aF0.017000000000000001
aF0.23000000000000001
aa(lp1152
F0.64700000000000002
aF0.027
aF0.32600000000000001
aa(lp1153
F0.60599999999999998
aF0.036999999999999998
aF0.35699999999999998
aa(lp1154
F0.53400000000000003
aF0.050999999999999997
aF0.41499999999999998
aa(lp1155
F0.52800000000000002
aF0.058999999999999997
aF0.41299999999999998
aa(lp1156
F0.45200000000000001
aF0.083000000000000004
aF0.46500000000000002
aa(lp1157
F0.42199999999999999
aF0.081000000000000003
aF0.497
aa(lp1158
F0.35799999999999998
aF0.095000000000000001
aF0.54700000000000004
aasg14
(lp1159
(lp1160
F0.90000000000000002
aF0.0040000000000000001
aF0.096000000000000002
aa(lp1161
F0.77400000000000002
aF0.010999999999999999
aF0.215
aa(lp1162
F0.70699999999999996
aF0.029000000000000001
aF0.26400000000000001
aa(lp1163
F0.64400000000000002
aF0.02
aF0.33600000000000002
aa(lp1164
F0.60099999999999998
aF0.032000000000000001
aF0.36699999999999999
aa(lp1165
F0.55500000000000005
aF0.056000000000000001
aF0.38900000000000001
aa(lp1166
F0.503
aF0.070000000000000007
aF0.42699999999999999
aa(lp1167
F0.46700000000000003
aF0.068000000000000005
aF0.46500000000000002
aa(lp1168
F0.42799999999999999
aF0.096000000000000002
aF0.47599999999999998
aassS'8.9'
p1169
(dp1170
g3
(lp1171
(lp1172
F0.51700000000000002
aF0.056000000000000001
aF0.42699999999999999
aa(lp1173
F0.32800000000000001
aF0.076999999999999999
aF0.59499999999999997
aa(lp1174
F0.26900000000000002
aF0.064000000000000001
aF0.66700000000000004
aa(lp1175
F0.19500000000000001
aF0.083000000000000004
aF0.72199999999999998
aa(lp1176
F0.19800000000000001
aF0.094
aF0.70799999999999996
aa(lp1177
F0.14399999999999999
aF0.107
aF0.749
aa(lp1178
F0.112
aF0.123
aF0.76500000000000001
aa(lp1179
F0.086999999999999994
aF0.13300000000000001
aF0.78000000000000003
aa(lp1180
F0.086999999999999994
aF0.13600000000000001
aF0.77700000000000002
aasg14
(lp1181
(lp1182
F0.52000000000000002
aF0.064000000000000001
aF0.41599999999999998
aa(lp1183
F0.39800000000000002
aF0.072999999999999995
aF0.52900000000000003
aa(lp1184
F0.29999999999999999
aF0.083000000000000004
aF0.61699999999999999
aa(lp1185
F0.251
aF0.092999999999999999
aF0.65600000000000003
aa(lp1186
F0.20399999999999999
aF0.092999999999999999
aF0.70299999999999996
aa(lp1187
F0.16400000000000001
aF0.096000000000000002
aF0.73999999999999999
aa(lp1188
F0.16
aF0.10199999999999999
aF0.73799999999999999
aa(lp1189
F0.13100000000000001
aF0.126
aF0.74299999999999999
aa(lp1190
F0.16300000000000001
aF0.124
aF0.71299999999999997
aassS'8.8'
p1191
(dp1192
g3
(lp1193
(lp1194
F0.73099999999999998
aF0.014
aF0.255
aa(lp1195
F0.56299999999999994
aF0.025000000000000001
aF0.41199999999999998
aa(lp1196
F0.47499999999999998
aF0.032000000000000001
aF0.49299999999999999
aa(lp1197
F0.379
aF0.050999999999999997
aF0.56999999999999995
aa(lp1198
F0.317
aF0.063
aF0.62
aa(lp1199
F0.251
aF0.075999999999999998
aF0.67300000000000004
aa(lp1200
F0.28199999999999997
aF0.079000000000000001
aF0.63900000000000001
aa(lp1201
F0.23699999999999999
aF0.089999999999999997
aF0.67300000000000004
aa(lp1202
F0.23899999999999999
aF0.10100000000000001
aF0.66000000000000003
aasg14
(lp1203
(lp1204
F0.746
aF0.014
aF0.23999999999999999
aa(lp1205
F0.60199999999999998
aF0.017000000000000001
aF0.38100000000000001
aa(lp1206
F0.46999999999999997
aF0.029999999999999999
aF0.5
aa(lp1207
F0.44
aF0.036999999999999998
aF0.52300000000000002
aa(lp1208
F0.33000000000000002
aF0.064000000000000001
aF0.60599999999999998
aa(lp1209
F0.317
aF0.052999999999999999
aF0.63
aa(lp1210
F0.33300000000000002
aF0.080000000000000002
aF0.58699999999999997
aa(lp1211
F0.29599999999999999
aF0.066000000000000003
aF0.63800000000000001
aa(lp1212
F0.26700000000000002
aF0.095000000000000001
aF0.63800000000000001
aassS'9.9'
p1213
(dp1214
g3
(lp1215
(lp1216
F0.752
aF0.02
aF0.22800000000000001
aa(lp1217
F0.60399999999999998
aF0.025999999999999999
aF0.37
aa(lp1218
F0.51800000000000002
aF0.035000000000000003
aF0.44700000000000001
aa(lp1219
F0.41099999999999998
aF0.062
aF0.52700000000000002
aa(lp1220
F0.376
aF0.058999999999999997
aF0.56499999999999995
aa(lp1221
F0.32800000000000001
aF0.078
aF0.59399999999999997
aa(lp1222
F0.27900000000000003
aF0.070000000000000007
aF0.65100000000000002
aa(lp1223
F0.248
aF0.073999999999999996
aF0.67800000000000005
aa(lp1224
F0.23699999999999999
aF0.10299999999999999
aF0.66000000000000003
aasg14
(lp1225
(lp1226
F0.76400000000000001
aF0.01
aF0.22600000000000001
aa(lp1227
F0.65200000000000002
aF0.017999999999999999
aF0.33000000000000002
aa(lp1228
F0.51500000000000001
aF0.027
aF0.45800000000000002
aa(lp1229
F0.434
aF0.034000000000000002
aF0.53200000000000003
aa(lp1230
F0.39800000000000002
aF0.058000000000000003
aF0.54400000000000004
aa(lp1231
F0.35799999999999998
aF0.060999999999999999
aF0.58099999999999996
aa(lp1232
F0.32600000000000001
aF0.045999999999999999
aF0.628
aa(lp1233
F0.315
aF0.068000000000000005
aF0.61699999999999999
aa(lp1234
F0.29699999999999999
aF0.085999999999999993
aF0.61699999999999999
aassS'6.13'
p1235
(dp1236
g3
(lp1237
(lp1238
F0.57599999999999996
aF0.048000000000000001
aF0.376
aa(lp1239
F0.34599999999999997
aF0.078
aF0.57599999999999996
aa(lp1240
F0.26000000000000001
aF0.079000000000000001
aF0.66100000000000003
aa(lp1241
F0.188
aF0.106
aF0.70599999999999996
aa(lp1242
F0.19500000000000001
aF0.091999999999999998
aF0.71299999999999997
aa(lp1243
F0.127
aF0.13100000000000001
aF0.74199999999999999
aa(lp1244
F0.109
aF0.12
aF0.77100000000000002
aa(lp1245
F0.090999999999999998
aF0.124
aF0.78500000000000003
aa(lp1246
F0.078
aF0.14399999999999999
aF0.77800000000000002
aasg14
(lp1247
(lp1248
F0.59699999999999998
aF0.056000000000000001
aF0.34699999999999998
aa(lp1249
F0.39800000000000002
aF0.079000000000000001
aF0.52300000000000002
aa(lp1250
F0.315
aF0.070000000000000007
aF0.61499999999999999
aa(lp1251
F0.251
aF0.068000000000000005
aF0.68100000000000005
aa(lp1252
F0.217
aF0.083000000000000004
aF0.69999999999999996
aa(lp1253
F0.184
aF0.109
aF0.70699999999999996
aa(lp1254
F0.17499999999999999
aF0.11700000000000001
aF0.70799999999999996
aa(lp1255
F0.157
aF0.115
aF0.72799999999999998
aa(lp1256
F0.13200000000000001
aF0.114
aF0.754
aassS'6.12'
p1257
(dp1258
g3
(lp1259
(lp1260
F0.51200000000000001
aF0.065000000000000002
aF0.42299999999999999
aa(lp1261
F0.32700000000000001
aF0.072999999999999995
aF0.59999999999999998
aa(lp1262
F0.27400000000000002
aF0.065000000000000002
aF0.66100000000000003
aa(lp1263
F0.20799999999999999
aF0.083000000000000004
aF0.70899999999999996
aa(lp1264
F0.155
aF0.10100000000000001
aF0.74399999999999999
aa(lp1265
F0.10299999999999999
aF0.11899999999999999
aF0.77800000000000002
aa(lp1266
F0.108
aF0.13100000000000001
aF0.76100000000000001
aa(lp1267
F0.085999999999999993
aF0.13200000000000001
aF0.78200000000000003
aa(lp1268
F0.083000000000000004
aF0.12
aF0.79700000000000004
aasg14
(lp1269
(lp1270
F0.55700000000000005
aF0.080000000000000002
aF0.36299999999999999
aa(lp1271
F0.38600000000000001
aF0.055
aF0.55900000000000005
aa(lp1272
F0.29399999999999998
aF0.082000000000000003
aF0.624
aa(lp1273
F0.23699999999999999
aF0.088999999999999996
aF0.67400000000000004
aa(lp1274
F0.20899999999999999
aF0.10100000000000001
aF0.68999999999999995
aa(lp1275
F0.17799999999999999
aF0.109
aF0.71299999999999997
aa(lp1276
F0.158
aF0.11700000000000001
aF0.72499999999999998
aa(lp1277
F0.13500000000000001
aF0.13100000000000001
aF0.73399999999999999
aa(lp1278
F0.114
aF0.157
aF0.72899999999999998
aassS'6.11'
p1279
(dp1280
g3
(lp1281
(lp1282
F0.51900000000000002
aF0.043999999999999997
aF0.437
aa(lp1283
F0.32200000000000001
aF0.056000000000000001
aF0.622
aa(lp1284
F0.25800000000000001
aF0.066000000000000003
aF0.67600000000000005
aa(lp1285
F0.17899999999999999
aF0.066000000000000003
aF0.755
aa(lp1286
F0.154
aF0.084000000000000005
aF0.76200000000000001
aa(lp1287
F0.10199999999999999
aF0.108
aF0.79000000000000004
aa(lp1288
F0.089999999999999997
aF0.111
aF0.79900000000000004
aa(lp1289
F0.084000000000000005
aF0.13300000000000001
aF0.78300000000000003
aa(lp1290
F0.064000000000000001
aF0.13600000000000001
aF0.80000000000000004
aasg14
(lp1291
(lp1292
F0.53500000000000003
aF0.070999999999999994
aF0.39400000000000002
aa(lp1293
F0.34300000000000003
aF0.044999999999999998
aF0.61199999999999999
aa(lp1294
F0.28000000000000003
aF0.068000000000000005
aF0.65200000000000002
aa(lp1295
F0.222
aF0.083000000000000004
aF0.69499999999999995
aa(lp1296
F0.215
aF0.086999999999999994
aF0.69799999999999995
aa(lp1297
F0.17499999999999999
aF0.096000000000000002
aF0.72899999999999998
aa(lp1298
F0.13900000000000001
aF0.108
aF0.753
aa(lp1299
F0.14999999999999999
aF0.13
aF0.71999999999999997
aa(lp1300
F0.11600000000000001
aF0.13800000000000001
aF0.746
aassS'6.10'
p1301
(dp1302
g3
(lp1303
(lp1304
F0.49199999999999999
aF0.070999999999999994
aF0.437
aa(lp1305
F0.33000000000000002
aF0.066000000000000003
aF0.60399999999999998
aa(lp1306
F0.216
aF0.108
aF0.67600000000000005
aa(lp1307
F0.16300000000000001
aF0.069000000000000006
aF0.76800000000000002
aa(lp1308
F0.14699999999999999
aF0.088999999999999996
aF0.76400000000000001
aa(lp1309
F0.089999999999999997
aF0.106
aF0.80400000000000005
aa(lp1310
F0.083000000000000004
aF0.11799999999999999
aF0.79900000000000004
aa(lp1311
F0.085000000000000006
aF0.123
aF0.79200000000000004
aa(lp1312
F0.052999999999999999
aF0.14499999999999999
aF0.80200000000000005
aasg14
(lp1313
(lp1314
F0.50700000000000001
aF0.055
aF0.438
aa(lp1315
F0.379
aF0.064000000000000001
aF0.55700000000000005
aa(lp1316
F0.27300000000000002
aF0.081000000000000003
aF0.64600000000000002
aa(lp1317
F0.20799999999999999
aF0.086999999999999994
aF0.70499999999999996
aa(lp1318
F0.17199999999999999
aF0.096000000000000002
aF0.73199999999999998
aa(lp1319
F0.17499999999999999
aF0.10000000000000001
aF0.72499999999999998
aa(lp1320
F0.155
aF0.114
aF0.73099999999999998
aa(lp1321
F0.11600000000000001
aF0.124
aF0.76000000000000001
aa(lp1322
F0.124
aF0.13500000000000001
aF0.74099999999999999
aassS'6.14'
p1323
(dp1324
g3
(lp1325
(lp1326
F0.56799999999999995
aF0.072999999999999995
aF0.35899999999999999
aa(lp1327
F0.36599999999999999
aF0.078
aF0.55600000000000005
aa(lp1328
F0.26600000000000001
aF0.092999999999999999
aF0.64100000000000001
aa(lp1329
F0.22500000000000001
aF0.084000000000000005
aF0.69099999999999995
aa(lp1330
F0.17699999999999999
aF0.098000000000000004
aF0.72499999999999998
aa(lp1331
F0.13600000000000001
aF0.114
aF0.75
aa(lp1332
F0.122
aF0.14099999999999999
aF0.73699999999999999
aa(lp1333
F0.088999999999999996
aF0.13700000000000001
aF0.77400000000000002
aa(lp1334
F0.090999999999999998
aF0.13900000000000001
aF0.77000000000000002
aasg14
(lp1335
(lp1336
F0.60599999999999998
aF0.068000000000000005
aF0.32600000000000001
aa(lp1337
F0.45700000000000002
aF0.063
aF0.47999999999999998
aa(lp1338
F0.32600000000000001
aF0.079000000000000001
aF0.59499999999999997
aa(lp1339
F0.25700000000000001
aF0.095000000000000001
aF0.64800000000000002
aa(lp1340
F0.23100000000000001
aF0.088999999999999996
aF0.68000000000000005
aa(lp1341
F0.191
aF0.094
aF0.71499999999999997
aa(lp1342
F0.189
aF0.106
aF0.70499999999999996
aa(lp1343
F0.187
aF0.13
aF0.68300000000000005
aa(lp1344
F0.13100000000000001
aF0.124
aF0.745
aassS'5.12'
p1345
(dp1346
g3
(lp1347
(lp1348
F0.52600000000000002
aF0.067000000000000004
aF0.40699999999999997
aa(lp1349
F0.318
aF0.072999999999999995
aF0.60899999999999999
aa(lp1350
F0.27000000000000002
aF0.087999999999999995
aF0.64200000000000002
aa(lp1351
F0.182
aF0.085000000000000006
aF0.73299999999999998
aa(lp1352
F0.157
aF0.10100000000000001
aF0.74199999999999999
aa(lp1353
F0.123
aF0.112
aF0.76500000000000001
aa(lp1354
F0.089999999999999997
aF0.128
aF0.78200000000000003
aa(lp1355
F0.085000000000000006
aF0.14099999999999999
aF0.77400000000000002
aa(lp1356
F0.070000000000000007
aF0.14099999999999999
aF0.78900000000000003
aasg14
(lp1357
(lp1358
F0.55000000000000004
aF0.069000000000000006
aF0.38100000000000001
aa(lp1359
F0.36799999999999999
aF0.072999999999999995
aF0.55900000000000005
aa(lp1360
F0.27800000000000002
aF0.070999999999999994
aF0.65100000000000002
aa(lp1361
F0.22800000000000001
aF0.091999999999999998
aF0.68000000000000005
aa(lp1362
F0.20899999999999999
aF0.083000000000000004
aF0.70799999999999996
aa(lp1363
F0.16700000000000001
aF0.107
aF0.72599999999999998
aa(lp1364
F0.151
aF0.111
aF0.73799999999999999
aa(lp1365
F0.126
aF0.114
aF0.76000000000000001
aa(lp1366
F0.12
aF0.151
aF0.72899999999999998
aassS'5.13'
p1367
(dp1368
g3
(lp1369
(lp1370
F0.56699999999999995
aF0.043999999999999997
aF0.38900000000000001
aa(lp1371
F0.34899999999999998
aF0.059999999999999998
aF0.59099999999999997
aa(lp1372
F0.251
aF0.087999999999999995
aF0.66100000000000003
aa(lp1373
F0.17599999999999999
aF0.098000000000000004
aF0.72599999999999998
aa(lp1374
F0.16500000000000001
aF0.11
aF0.72499999999999998
aa(lp1375
F0.13600000000000001
aF0.109
aF0.755
aa(lp1376
F0.10100000000000001
aF0.128
aF0.77100000000000002
aa(lp1377
F0.090999999999999998
aF0.122
aF0.78700000000000003
aa(lp1378
F0.085000000000000006
aF0.14799999999999999
aF0.76700000000000002
aasg14
(lp1379
(lp1380
F0.55500000000000005
aF0.056000000000000001
aF0.38900000000000001
aa(lp1381
F0.40799999999999997
aF0.059999999999999998
aF0.53200000000000003
aa(lp1382
F0.317
aF0.075999999999999998
aF0.60699999999999998
aa(lp1383
F0.251
aF0.086999999999999994
aF0.66200000000000003
aa(lp1384
F0.223
aF0.097000000000000003
aF0.68000000000000005
aa(lp1385
F0.17199999999999999
aF0.11600000000000001
aF0.71199999999999997
aa(lp1386
F0.157
aF0.109
aF0.73399999999999999
aa(lp1387
F0.13900000000000001
aF0.14899999999999999
aF0.71199999999999997
aa(lp1388
F0.128
aF0.127
aF0.745
aassS'5.10'
p1389
(dp1390
g3
(lp1391
(lp1392
F0.49299999999999999
aF0.065000000000000002
aF0.442
aa(lp1393
F0.29299999999999998
aF0.090999999999999998
aF0.61599999999999999
aa(lp1394
F0.21299999999999999
aF0.070000000000000007
aF0.71699999999999997
aa(lp1395
F0.14899999999999999
aF0.091999999999999998
aF0.75900000000000001
aa(lp1396
F0.111
aF0.10100000000000001
aF0.78800000000000003
aa(lp1397
F0.105
aF0.11
aF0.78500000000000003
aa(lp1398
F0.083000000000000004
aF0.11
aF0.80700000000000005
aa(lp1399
F0.073999999999999996
aF0.11799999999999999
aF0.80800000000000005
aa(lp1400
F0.058000000000000003
aF0.14499999999999999
aF0.79700000000000004
aasg14
(lp1401
(lp1402
F0.48899999999999999
aF0.070000000000000007
aF0.441
aa(lp1403
F0.32000000000000001
aF0.074999999999999997
aF0.60499999999999998
aa(lp1404
F0.253
aF0.079000000000000001
aF0.66800000000000004
aa(lp1405
F0.19700000000000001
aF0.086999999999999994
aF0.71599999999999997
aa(lp1406
F0.16200000000000001
aF0.091999999999999998
aF0.746
aa(lp1407
F0.14299999999999999
aF0.10000000000000001
aF0.75700000000000001
aa(lp1408
F0.14099999999999999
aF0.113
aF0.746
aa(lp1409
F0.111
aF0.13300000000000001
aF0.75600000000000001
aa(lp1410
F0.114
aF0.122
aF0.76400000000000001
aassS'5.11'
p1411
(dp1412
g3
(lp1413
(lp1414
F0.47499999999999998
aF0.070000000000000007
aF0.45500000000000002
aa(lp1415
F0.30499999999999999
aF0.085000000000000006
aF0.60999999999999999
aa(lp1416
F0.24199999999999999
aF0.059999999999999998
aF0.69799999999999995
aa(lp1417
F0.17699999999999999
aF0.099000000000000005
aF0.72399999999999998
aa(lp1418
F0.152
aF0.095000000000000001
aF0.753
aa(lp1419
F0.109
aF0.111
aF0.78000000000000003
aa(lp1420
F0.10100000000000001
aF0.12
aF0.77900000000000003
aa(lp1421
F0.067000000000000004
aF0.122
aF0.81100000000000005
aa(lp1422
F0.066000000000000003
aF0.121
aF0.81299999999999994
aasg14
(lp1423
(lp1424
F0.56100000000000005
aF0.053999999999999999
aF0.38500000000000001
aa(lp1425
F0.34999999999999998
aF0.066000000000000003
aF0.58399999999999996
aa(lp1426
F0.28000000000000003
aF0.062
aF0.65800000000000003
aa(lp1427
F0.219
aF0.097000000000000003
aF0.68400000000000005
aa(lp1428
F0.19800000000000001
aF0.085999999999999993
aF0.71599999999999997
aa(lp1429
F0.16
aF0.114
aF0.72599999999999998
aa(lp1430
F0.153
aF0.115
aF0.73199999999999998
aa(lp1431
F0.13200000000000001
aF0.124
aF0.74399999999999999
aa(lp1432
F0.098000000000000004
aF0.14899999999999999
aF0.753
aassS'5.14'
p1433
(dp1434
g3
(lp1435
(lp1436
F0.57799999999999996
aF0.053999999999999999
aF0.36799999999999999
aa(lp1437
F0.39900000000000002
aF0.089999999999999997
aF0.51100000000000001
aa(lp1438
F0.29899999999999999
aF0.095000000000000001
aF0.60599999999999998
aa(lp1439
F0.23999999999999999
aF0.11
aF0.65000000000000002
aa(lp1440
F0.20200000000000001
aF0.10000000000000001
aF0.69799999999999995
aa(lp1441
F0.13400000000000001
aF0.111
aF0.755
aa(lp1442
F0.11799999999999999
aF0.13200000000000001
aF0.75
aa(lp1443
F0.10199999999999999
aF0.14000000000000001
aF0.75800000000000001
aa(lp1444
F0.098000000000000004
aF0.14399999999999999
aF0.75800000000000001
aasg14
(lp1445
(lp1446
F0.61399999999999999
aF0.052999999999999999
aF0.33300000000000002
aa(lp1447
F0.438
aF0.055
aF0.50700000000000001
aa(lp1448
F0.33800000000000002
aF0.088999999999999996
aF0.57299999999999995
aa(lp1449
F0.27500000000000002
aF0.080000000000000002
aF0.64500000000000002
aa(lp1450
F0.24299999999999999
aF0.097000000000000003
aF0.66000000000000003
aa(lp1451
F0.20100000000000001
aF0.092999999999999999
aF0.70599999999999996
aa(lp1452
F0.182
aF0.11
aF0.70799999999999996
aa(lp1453
F0.186
aF0.13100000000000001
aF0.68300000000000005
aa(lp1454
F0.13800000000000001
aF0.14099999999999999
aF0.72099999999999997
aassS'10.11'
p1455
(dp1456
g3
(lp1457
(lp1458
F0.55800000000000005
aF0.051999999999999998
aF0.39000000000000001
aa(lp1459
F0.43099999999999999
aF0.057000000000000002
aF0.51200000000000001
aa(lp1460
F0.30199999999999999
aF0.078
aF0.62
aa(lp1461
F0.25700000000000001
aF0.074999999999999997
aF0.66800000000000004
aa(lp1462
F0.22600000000000001
aF0.096000000000000002
aF0.67800000000000005
aa(lp1463
F0.16200000000000001
aF0.109
aF0.72899999999999998
aa(lp1464
F0.159
aF0.124
aF0.71699999999999997
aa(lp1465
F0.127
aF0.13500000000000001
aF0.73799999999999999
aa(lp1466
F0.108
aF0.14499999999999999
aF0.747
aasg14
(lp1467
(lp1468
F0.59999999999999998
aF0.036999999999999998
aF0.36299999999999999
aa(lp1469
F0.47699999999999998
aF0.067000000000000004
aF0.45600000000000002
aa(lp1470
F0.373
aF0.073999999999999996
aF0.55300000000000005
aa(lp1471
F0.309
aF0.069000000000000006
aF0.622
aa(lp1472
F0.26200000000000001
aF0.089999999999999997
aF0.64800000000000002
aa(lp1473
F0.215
aF0.089999999999999997
aF0.69499999999999995
aa(lp1474
F0.186
aF0.109
aF0.70499999999999996
aa(lp1475
F0.17799999999999999
aF0.126
aF0.69599999999999995
aa(lp1476
F0.161
aF0.13200000000000001
aF0.70699999999999996
aassS'10.10'
p1477
(dp1478
g3
(lp1479
(lp1480
F0.78200000000000003
aF0.0089999999999999993
aF0.20899999999999999
aa(lp1481
F0.66400000000000003
aF0.017999999999999999
aF0.318
aa(lp1482
F0.54400000000000004
aF0.041000000000000002
aF0.41499999999999998
aa(lp1483
F0.40200000000000002
aF0.044999999999999998
aF0.55300000000000005
aa(lp1484
F0.38300000000000001
aF0.049000000000000002
aF0.56799999999999995
aa(lp1485
F0.33200000000000002
aF0.057000000000000002
aF0.61099999999999999
aa(lp1486
F0.308
aF0.064000000000000001
aF0.628
aa(lp1487
F0.252
aF0.074999999999999997
aF0.67300000000000004
aa(lp1488
F0.27200000000000002
aF0.096000000000000002
aF0.63200000000000001
aasg14
(lp1489
(lp1490
F0.79000000000000004
aF0.012
aF0.19800000000000001
aa(lp1491
F0.65900000000000003
aF0.021999999999999999
aF0.31900000000000001
aa(lp1492
F0.56899999999999995
aF0.033000000000000002
aF0.39800000000000002
aa(lp1493
F0.47499999999999998
aF0.039
aF0.48599999999999999
aa(lp1494
F0.42599999999999999
aF0.043999999999999997
aF0.53000000000000003
aa(lp1495
F0.35699999999999998
aF0.062
aF0.58099999999999996
aa(lp1496
F0.33200000000000002
aF0.089999999999999997
aF0.57799999999999996
aa(lp1497
F0.33900000000000002
aF0.076999999999999999
aF0.58399999999999996
aa(lp1498
F0.31
aF0.104
aF0.58599999999999997
aassS'10.13'
p1499
(dp1500
g3
(lp1501
(lp1502
F0.61399999999999999
aF0.041000000000000002
aF0.34499999999999997
aa(lp1503
F0.44400000000000001
aF0.064000000000000001
aF0.49199999999999999
aa(lp1504
F0.35499999999999998
aF0.055
aF0.58999999999999997
aa(lp1505
F0.27600000000000002
aF0.080000000000000002
aF0.64400000000000002
aa(lp1506
F0.23699999999999999
aF0.089999999999999997
aF0.67300000000000004
aa(lp1507
F0.20300000000000001
aF0.090999999999999998
aF0.70599999999999996
aa(lp1508
F0.16
aF0.115
aF0.72499999999999998
aa(lp1509
F0.13600000000000001
aF0.127
aF0.73699999999999999
aa(lp1510
F0.124
aF0.13400000000000001
aF0.74199999999999999
aasg14
(lp1511
(lp1512
F0.621
aF0.034000000000000002
aF0.34499999999999997
aa(lp1513
F0.46600000000000003
aF0.055
aF0.47899999999999998
aa(lp1514
F0.38100000000000001
aF0.050999999999999997
aF0.56799999999999995
aa(lp1515
F0.32600000000000001
aF0.084000000000000005
aF0.58999999999999997
aa(lp1516
F0.26400000000000001
aF0.091999999999999998
aF0.64400000000000002
aa(lp1517
F0.23100000000000001
aF0.11899999999999999
aF0.65000000000000002
aa(lp1518
F0.222
aF0.105
aF0.67300000000000004
aa(lp1519
F0.19800000000000001
aF0.113
aF0.68899999999999995
aa(lp1520
F0.19500000000000001
aF0.113
aF0.69199999999999995
aassS'10.12'
p1521
(dp1522
g3
(lp1523
(lp1524
F0.59699999999999998
aF0.045999999999999999
aF0.35699999999999998
aa(lp1525
F0.42499999999999999
aF0.058999999999999997
aF0.51600000000000001
aa(lp1526
F0.30299999999999999
aF0.075999999999999998
aF0.621
aa(lp1527
F0.26800000000000002
aF0.086999999999999994
aF0.64500000000000002
aa(lp1528
F0.21099999999999999
aF0.081000000000000003
aF0.70799999999999996
aa(lp1529
F0.16300000000000001
aF0.11
aF0.72699999999999998
aa(lp1530
F0.155
aF0.113
aF0.73199999999999998
aa(lp1531
F0.14299999999999999
aF0.125
aF0.73199999999999998
aa(lp1532
F0.11600000000000001
aF0.13700000000000001
aF0.747
aasg14
(lp1533
(lp1534
F0.622
aF0.042999999999999997
aF0.33500000000000002
aa(lp1535
F0.46300000000000002
aF0.052999999999999999
aF0.48399999999999999
aa(lp1536
F0.34799999999999998
aF0.058000000000000003
aF0.59399999999999997
aa(lp1537
F0.35399999999999998
aF0.059999999999999998
aF0.58599999999999997
aa(lp1538
F0.26400000000000001
aF0.085999999999999993
aF0.65000000000000002
aa(lp1539
F0.24299999999999999
aF0.106
aF0.65100000000000002
aa(lp1540
F0.217
aF0.11899999999999999
aF0.66400000000000003
aa(lp1541
F0.20200000000000001
aF0.10299999999999999
aF0.69499999999999995
aa(lp1542
F0.17000000000000001
aF0.13
aF0.69999999999999996
aassS'10.14'
p1543
(dp1544
g3
(lp1545
(lp1546
F0.65800000000000003
aF0.042999999999999997
aF0.29899999999999999
aa(lp1547
F0.44900000000000001
aF0.065000000000000002
aF0.48599999999999999
aa(lp1548
F0.34499999999999997
aF0.065000000000000002
aF0.58999999999999997
aa(lp1549
F0.28899999999999998
aF0.080000000000000002
aF0.63100000000000001
aa(lp1550
F0.23499999999999999
aF0.091999999999999998
aF0.67300000000000004
aa(lp1551
F0.19500000000000001
aF0.11799999999999999
aF0.68700000000000006
aa(lp1552
F0.17000000000000001
aF0.11799999999999999
aF0.71199999999999997
aa(lp1553
F0.14000000000000001
aF0.13800000000000001
aF0.72199999999999998
aa(lp1554
F0.12
aF0.14499999999999999
aF0.73499999999999999
aasg14
(lp1555
(lp1556
F0.66700000000000004
aF0.028000000000000001
aF0.30499999999999999
aa(lp1557
F0.495
aF0.047
aF0.45800000000000002
aa(lp1558
F0.39300000000000002
aF0.058999999999999997
aF0.54800000000000004
aa(lp1559
F0.32500000000000001
aF0.073999999999999996
aF0.60099999999999998
aa(lp1560
F0.26400000000000001
aF0.10100000000000001
aF0.63500000000000001
aa(lp1561
F0.28299999999999997
aF0.106
aF0.61099999999999999
aa(lp1562
F0.217
aF0.109
aF0.67400000000000004
aa(lp1563
F0.20300000000000001
aF0.13300000000000001
aF0.66400000000000003
aa(lp1564
F0.20000000000000001
aF0.14399999999999999
aF0.65600000000000003
aassS'2.9'
p1565
(dp1566
g3
(lp1567
(lp1568
F0.40100000000000002
aF0.078
aF0.52100000000000002
aa(lp1569
F0.249
aF0.062
aF0.68899999999999995
aa(lp1570
F0.182
aF0.064000000000000001
aF0.754
aa(lp1571
F0.13400000000000001
aF0.084000000000000005
aF0.78200000000000003
aa(lp1572
F0.10299999999999999
aF0.097000000000000003
aF0.80000000000000004
aa(lp1573
F0.089999999999999997
aF0.108
aF0.80200000000000005
aa(lp1574
F0.083000000000000004
aF0.127
aF0.79000000000000004
aa(lp1575
F0.067000000000000004
aF0.11
aF0.82299999999999995
aa(lp1576
F0.051999999999999998
aF0.13300000000000001
aF0.81499999999999995
aasg14
(lp1577
(lp1578
F0.45600000000000002
aF0.068000000000000005
aF0.47599999999999998
aa(lp1579
F0.28899999999999998
aF0.067000000000000004
aF0.64400000000000002
aa(lp1580
F0.22700000000000001
aF0.073999999999999996
aF0.69899999999999995
aa(lp1581
F0.17699999999999999
aF0.076999999999999999
aF0.746
aa(lp1582
F0.17699999999999999
aF0.10299999999999999
aF0.71999999999999997
aa(lp1583
F0.13100000000000001
aF0.11
aF0.75900000000000001
aa(lp1584
F0.14399999999999999
aF0.099000000000000005
aF0.75700000000000001
aa(lp1585
F0.109
aF0.109
aF0.78200000000000003
aa(lp1586
F0.10199999999999999
aF0.124
aF0.77400000000000002
aassS'3.5'
p1587
(dp1588
g3
(lp1589
(lp1590
F0.376
aF0.078
aF0.54600000000000004
aa(lp1591
F0.21299999999999999
aF0.085000000000000006
aF0.70199999999999996
aa(lp1592
F0.20100000000000001
aF0.066000000000000003
aF0.73299999999999998
aa(lp1593
F0.14399999999999999
aF0.083000000000000004
aF0.77300000000000002
aa(lp1594
F0.13400000000000001
aF0.105
aF0.76100000000000001
aa(lp1595
F0.10000000000000001
aF0.105
aF0.79500000000000004
aa(lp1596
F0.098000000000000004
aF0.108
aF0.79400000000000004
aa(lp1597
F0.075999999999999998
aF0.104
aF0.81999999999999995
aa(lp1598
F0.069000000000000006
aF0.14499999999999999
aF0.78600000000000003
aasg14
(lp1599
(lp1600
F0.41599999999999998
aF0.073999999999999996
aF0.51000000000000001
aa(lp1601
F0.28999999999999998
aF0.060999999999999999
aF0.64900000000000002
aa(lp1602
F0.24299999999999999
aF0.082000000000000003
aF0.67500000000000004
aa(lp1603
F0.214
aF0.080000000000000002
aF0.70599999999999996
aa(lp1604
F0.161
aF0.104
aF0.73499999999999999
aa(lp1605
F0.14999999999999999
aF0.085999999999999993
aF0.76400000000000001
aa(lp1606
F0.129
aF0.109
aF0.76200000000000001
aa(lp1607
F0.114
aF0.13100000000000001
aF0.755
aa(lp1608
F0.123
aF0.13200000000000001
aF0.745
aassS'4.5'
p1609
(dp1610
g3
(lp1611
(lp1612
F0.41099999999999998
aF0.063
aF0.52600000000000002
aa(lp1613
F0.28299999999999997
aF0.066000000000000003
aF0.65100000000000002
aa(lp1614
F0.20000000000000001
aF0.079000000000000001
aF0.72099999999999997
aa(lp1615
F0.16500000000000001
aF0.092999999999999999
aF0.74199999999999999
aa(lp1616
F0.14799999999999999
aF0.094
aF0.75800000000000001
aa(lp1617
F0.107
aF0.095000000000000001
aF0.79800000000000004
aa(lp1618
F0.082000000000000003
aF0.115
aF0.80300000000000005
aa(lp1619
F0.076999999999999999
aF0.11799999999999999
aF0.80500000000000005
aa(lp1620
F0.073999999999999996
aF0.13400000000000001
aF0.79200000000000004
aasg14
(lp1621
(lp1622
F0.42599999999999999
aF0.056000000000000001
aF0.51800000000000002
aa(lp1623
F0.33800000000000002
aF0.068000000000000005
aF0.59399999999999997
aa(lp1624
F0.23699999999999999
aF0.064000000000000001
aF0.69899999999999995
aa(lp1625
F0.19800000000000001
aF0.085999999999999993
aF0.71599999999999997
aa(lp1626
F0.154
aF0.098000000000000004
aF0.748
aa(lp1627
F0.13800000000000001
aF0.096000000000000002
aF0.76600000000000001
aa(lp1628
F0.13600000000000001
aF0.112
aF0.752
aa(lp1629
F0.123
aF0.107
aF0.77000000000000002
aa(lp1630
F0.099000000000000005
aF0.13500000000000001
aF0.76600000000000001
aassS'4.4'
p1631
(dp1632
g3
(lp1633
(lp1634
F0.64300000000000002
aF0.010999999999999999
aF0.34599999999999997
aa(lp1635
F0.47799999999999998
aF0.028000000000000001
aF0.49399999999999999
aa(lp1636
F0.379
aF0.036999999999999998
aF0.58399999999999996
aa(lp1637
F0.315
aF0.057000000000000002
aF0.628
aa(lp1638
F0.27400000000000002
aF0.042999999999999997
aF0.68300000000000005
aa(lp1639
F0.252
aF0.082000000000000003
aF0.66600000000000004
aa(lp1640
F0.21099999999999999
aF0.098000000000000004
aF0.69099999999999995
aa(lp1641
F0.22600000000000001
aF0.10000000000000001
aF0.67400000000000004
aa(lp1642
F0.20499999999999999
aF0.10000000000000001
aF0.69499999999999995
aasg14
(lp1643
(lp1644
F0.68899999999999995
aF0.021000000000000001
aF0.28999999999999998
aa(lp1645
F0.48199999999999998
aF0.032000000000000001
aF0.48599999999999999
aa(lp1646
F0.39200000000000002
aF0.029999999999999999
aF0.57799999999999996
aa(lp1647
F0.36699999999999999
aF0.052999999999999999
aF0.57999999999999996
aa(lp1648
F0.32700000000000001
aF0.043999999999999997
aF0.629
aa(lp1649
F0.311
aF0.060999999999999999
aF0.628
aa(lp1650
F0.28799999999999998
aF0.085000000000000006
aF0.627
aa(lp1651
F0.26700000000000002
aF0.073999999999999996
aF0.65900000000000003
aa(lp1652
F0.223
aF0.10299999999999999
aF0.67400000000000004
aassS'4.7'
p1653
(dp1654
g3
(lp1655
(lp1656
F0.41999999999999998
aF0.073999999999999996
aF0.50600000000000001
aa(lp1657
F0.22900000000000001
aF0.083000000000000004
aF0.68799999999999994
aa(lp1658
F0.20300000000000001
aF0.090999999999999998
aF0.70599999999999996
aa(lp1659
F0.13800000000000001
aF0.089999999999999997
aF0.77200000000000002
aa(lp1660
F0.11700000000000001
aF0.094
aF0.78900000000000003
aa(lp1661
F0.085999999999999993
aF0.107
aF0.80700000000000005
aa(lp1662
F0.086999999999999994
aF0.107
aF0.80600000000000005
aa(lp1663
F0.076999999999999999
aF0.107
aF0.81599999999999995
aa(lp1664
F0.058999999999999997
aF0.106
aF0.83499999999999996
aasg14
(lp1665
(lp1666
F0.432
aF0.076999999999999999
aF0.49099999999999999
aa(lp1667
F0.308
aF0.063
aF0.629
aa(lp1668
F0.249
aF0.060999999999999999
aF0.68999999999999995
aa(lp1669
F0.20100000000000001
aF0.081000000000000003
aF0.71799999999999997
aa(lp1670
F0.18099999999999999
aF0.098000000000000004
aF0.72099999999999997
aa(lp1671
F0.13500000000000001
aF0.109
aF0.75600000000000001
aa(lp1672
F0.13
aF0.112
aF0.75800000000000001
aa(lp1673
F0.11899999999999999
aF0.106
aF0.77500000000000002
aa(lp1674
F0.11700000000000001
aF0.13500000000000001
aF0.748
aassS'4.6'
p1675
(dp1676
g3
(lp1677
(lp1678
F0.37
aF0.082000000000000003
aF0.54800000000000004
aa(lp1679
F0.26600000000000001
aF0.068000000000000005
aF0.66600000000000004
aa(lp1680
F0.20200000000000001
aF0.082000000000000003
aF0.71599999999999997
aa(lp1681
F0.14699999999999999
aF0.094
aF0.75900000000000001
aa(lp1682
F0.13300000000000001
aF0.085999999999999993
aF0.78100000000000003
aa(lp1683
F0.112
aF0.11
aF0.77800000000000002
aa(lp1684
F0.085999999999999993
aF0.14499999999999999
aF0.76900000000000002
aa(lp1685
F0.066000000000000003
aF0.122
aF0.81200000000000006
aa(lp1686
F0.070000000000000007
aF0.14099999999999999
aF0.78900000000000003
aasg14
(lp1687
(lp1688
F0.46200000000000002
aF0.067000000000000004
aF0.47099999999999997
aa(lp1689
F0.309
aF0.050000000000000003
aF0.64100000000000001
aa(lp1690
F0.23300000000000001
aF0.081000000000000003
aF0.68600000000000005
aa(lp1691
F0.214
aF0.092999999999999999
aF0.69299999999999995
aa(lp1692
F0.189
aF0.076999999999999999
aF0.73399999999999999
aa(lp1693
F0.158
aF0.10100000000000001
aF0.74099999999999999
aa(lp1694
F0.13800000000000001
aF0.111
aF0.751
aa(lp1695
F0.122
aF0.125
aF0.753
aa(lp1696
F0.11
aF0.124
aF0.76600000000000001
aassS'5.5'
p1697
(dp1698
g3
(lp1699
(lp1700
F0.66700000000000004
aF0.02
aF0.313
aa(lp1701
F0.48999999999999999
aF0.017999999999999999
aF0.49199999999999999
aa(lp1702
F0.38900000000000001
aF0.050000000000000003
aF0.56100000000000005
aa(lp1703
F0.33400000000000002
aF0.050000000000000003
aF0.61599999999999999
aa(lp1704
F0.28899999999999998
aF0.052999999999999999
aF0.65800000000000003
aa(lp1705
F0.26100000000000001
aF0.072999999999999995
aF0.66600000000000004
aa(lp1706
F0.25
aF0.085000000000000006
aF0.66500000000000004
aa(lp1707
F0.20899999999999999
aF0.085000000000000006
aF0.70599999999999996
aa(lp1708
F0.215
aF0.089999999999999997
aF0.69499999999999995
aasg14
(lp1709
(lp1710
F0.70799999999999996
aF0.014
aF0.27800000000000002
aa(lp1711
F0.51600000000000001
aF0.035999999999999997
aF0.44800000000000001
aa(lp1712
F0.40799999999999997
aF0.034000000000000002
aF0.55800000000000005
aa(lp1713
F0.35999999999999999
aF0.050999999999999997
aF0.58899999999999997
aa(lp1714
F0.29999999999999999
aF0.060999999999999999
aF0.63900000000000001
aa(lp1715
F0.30499999999999999
aF0.068000000000000005
aF0.627
aa(lp1716
F0.27800000000000002
aF0.073999999999999996
aF0.64800000000000002
aa(lp1717
F0.26400000000000001
aF0.079000000000000001
aF0.65700000000000003
aa(lp1718
F0.24099999999999999
aF0.084000000000000005
aF0.67500000000000004
aassS'5.6'
p1719
(dp1720
g3
(lp1721
(lp1722
F0.41999999999999998
aF0.081000000000000003
aF0.499
aa(lp1723
F0.29199999999999998
aF0.068000000000000005
aF0.64000000000000001
aa(lp1724
F0.19900000000000001
aF0.096000000000000002
aF0.70499999999999996
aa(lp1725
F0.17299999999999999
aF0.10299999999999999
aF0.72399999999999998
aa(lp1726
F0.14699999999999999
aF0.089999999999999997
aF0.76300000000000001
aa(lp1727
F0.11
aF0.107
aF0.78300000000000003
aa(lp1728
F0.096000000000000002
aF0.126
aF0.77800000000000002
aa(lp1729
F0.084000000000000005
aF0.122
aF0.79400000000000004
aa(lp1730
F0.073999999999999996
aF0.121
aF0.80500000000000005
aasg14
(lp1731
(lp1732
F0.46300000000000002
aF0.062
aF0.47499999999999998
aa(lp1733
F0.33300000000000002
aF0.056000000000000001
aF0.61099999999999999
aa(lp1734
F0.26100000000000001
aF0.067000000000000004
aF0.67200000000000004
aa(lp1735
F0.20799999999999999
aF0.091999999999999998
aF0.69999999999999996
aa(lp1736
F0.20599999999999999
aF0.076999999999999999
aF0.71699999999999997
aa(lp1737
F0.158
aF0.098000000000000004
aF0.74399999999999999
aa(lp1738
F0.14599999999999999
aF0.095000000000000001
aF0.75900000000000001
aa(lp1739
F0.128
aF0.11899999999999999
aF0.753
aa(lp1740
F0.11
aF0.13200000000000001
aF0.75800000000000001
aassS'5.7'
p1741
(dp1742
g3
(lp1743
(lp1744
F0.432
aF0.070000000000000007
aF0.498
aa(lp1745
F0.27500000000000002
aF0.082000000000000003
aF0.64300000000000002
aa(lp1746
F0.20799999999999999
aF0.088999999999999996
aF0.70299999999999996
aa(lp1747
F0.16200000000000001
aF0.086999999999999994
aF0.751
aa(lp1748
F0.129
aF0.111
aF0.76000000000000001
aa(lp1749
F0.11799999999999999
aF0.11
aF0.77200000000000002
aa(lp1750
F0.078
aF0.105
aF0.81699999999999995
aa(lp1751
F0.092999999999999999
aF0.112
aF0.79500000000000004
aa(lp1752
F0.067000000000000004
aF0.14799999999999999
aF0.78500000000000003
aasg14
(lp1753
(lp1754
F0.46700000000000003
aF0.072999999999999995
aF0.46000000000000002
aa(lp1755
F0.34000000000000002
aF0.078
aF0.58199999999999996
aa(lp1756
F0.248
aF0.073999999999999996
aF0.67800000000000005
aa(lp1757
F0.19900000000000001
aF0.088999999999999996
aF0.71199999999999997
aa(lp1758
F0.16800000000000001
aF0.083000000000000004
aF0.749
aa(lp1759
F0.14099999999999999
aF0.105
aF0.754
aa(lp1760
F0.13200000000000001
aF0.108
aF0.76000000000000001
aa(lp1761
F0.13200000000000001
aF0.13200000000000001
aF0.73599999999999999
aa(lp1762
F0.115
aF0.13300000000000001
aF0.752
aassS'5.8'
p1763
(dp1764
g3
(lp1765
(lp1766
F0.44500000000000001
aF0.072999999999999995
aF0.48199999999999998
aa(lp1767
F0.28399999999999997
aF0.067000000000000004
aF0.64900000000000002
aa(lp1768
F0.21299999999999999
aF0.074999999999999997
aF0.71199999999999997
aa(lp1769
F0.153
aF0.085000000000000006
aF0.76200000000000001
aa(lp1770
F0.13300000000000001
aF0.086999999999999994
aF0.78000000000000003
aa(lp1771
F0.107
aF0.113
aF0.78000000000000003
aa(lp1772
F0.078
aF0.11700000000000001
aF0.80500000000000005
aa(lp1773
F0.073999999999999996
aF0.13800000000000001
aF0.78800000000000003
aa(lp1774
F0.071999999999999995
aF0.13100000000000001
aF0.79700000000000004
aasg14
(lp1775
(lp1776
F0.495
aF0.051999999999999998
aF0.45300000000000001
aa(lp1777
F0.32700000000000001
aF0.076999999999999999
aF0.59599999999999997
aa(lp1778
F0.26500000000000001
aF0.070000000000000007
aF0.66500000000000004
aa(lp1779
F0.20699999999999999
aF0.078
aF0.71499999999999997
aa(lp1780
F0.16800000000000001
aF0.084000000000000005
aF0.748
aa(lp1781
F0.17599999999999999
aF0.106
aF0.71799999999999997
aa(lp1782
F0.14299999999999999
aF0.113
aF0.74399999999999999
aa(lp1783
F0.13700000000000001
aF0.12
aF0.74299999999999999
aa(lp1784
F0.106
aF0.129
aF0.76500000000000001
aassS'5.9'
p1785
(dp1786
g3
(lp1787
(lp1788
F0.45800000000000002
aF0.064000000000000001
aF0.47799999999999998
aa(lp1789
F0.315
aF0.064000000000000001
aF0.621
aa(lp1790
F0.20399999999999999
aF0.083000000000000004
aF0.71299999999999997
aa(lp1791
F0.16200000000000001
aF0.10299999999999999
aF0.73499999999999999
aa(lp1792
F0.123
aF0.122
aF0.755
aa(lp1793
F0.11
aF0.11700000000000001
aF0.77300000000000002
aa(lp1794
F0.085000000000000006
aF0.113
aF0.80200000000000005
aa(lp1795
F0.083000000000000004
aF0.13300000000000001
aF0.78400000000000003
aa(lp1796
F0.049000000000000002
aF0.123
aF0.82799999999999996
aasg14
(lp1797
(lp1798
F0.45100000000000001
aF0.075999999999999998
aF0.47299999999999998
aa(lp1799
F0.32800000000000001
aF0.067000000000000004
aF0.60499999999999998
aa(lp1800
F0.252
aF0.078
aF0.67000000000000004
aa(lp1801
F0.215
aF0.087999999999999995
aF0.69699999999999995
aa(lp1802
F0.16
aF0.095000000000000001
aF0.745
aa(lp1803
F0.14899999999999999
aF0.10000000000000001
aF0.751
aa(lp1804
F0.128
aF0.106
aF0.76600000000000001
aa(lp1805
F0.126
aF0.14099999999999999
aF0.73299999999999998
aa(lp1806
F0.114
aF0.112
aF0.77400000000000002
aassS'4.9'
p1807
(dp1808
g3
(lp1809
(lp1810
F0.41999999999999998
aF0.067000000000000004
aF0.51300000000000001
aa(lp1811
F0.29699999999999999
aF0.060999999999999999
aF0.64200000000000002
aa(lp1812
F0.20399999999999999
aF0.062
aF0.73399999999999999
aa(lp1813
F0.151
aF0.089999999999999997
aF0.75900000000000001
aa(lp1814
F0.114
aF0.10000000000000001
aF0.78600000000000003
aa(lp1815
F0.076999999999999999
aF0.098000000000000004
aF0.82499999999999996
aa(lp1816
F0.082000000000000003
aF0.122
aF0.79600000000000004
aa(lp1817
F0.058999999999999997
aF0.126
aF0.81499999999999995
aa(lp1818
F0.055
aF0.126
aF0.81899999999999995
aasg14
(lp1819
(lp1820
F0.46400000000000002
aF0.066000000000000003
aF0.46999999999999997
aa(lp1821
F0.33900000000000002
aF0.071999999999999995
aF0.58899999999999997
aa(lp1822
F0.23699999999999999
aF0.065000000000000002
aF0.69799999999999995
aa(lp1823
F0.20499999999999999
aF0.073999999999999996
aF0.72099999999999997
aa(lp1824
F0.16900000000000001
aF0.087999999999999995
aF0.74299999999999999
aa(lp1825
F0.157
aF0.081000000000000003
aF0.76200000000000001
aa(lp1826
F0.11799999999999999
aF0.11
aF0.77200000000000002
aa(lp1827
F0.123
aF0.11
aF0.76700000000000002
aa(lp1828
F0.127
aF0.13800000000000001
aF0.73499999999999999
aassS'4.8'
p1829
(dp1830
g3
(lp1831
(lp1832
F0.42399999999999999
aF0.067000000000000004
aF0.50900000000000001
aa(lp1833
F0.29099999999999998
aF0.072999999999999995
aF0.63600000000000001
aa(lp1834
F0.193
aF0.075999999999999998
aF0.73099999999999998
aa(lp1835
F0.14999999999999999
aF0.087999999999999995
aF0.76200000000000001
aa(lp1836
F0.114
aF0.107
aF0.77900000000000003
aa(lp1837
F0.082000000000000003
aF0.105
aF0.81299999999999994
aa(lp1838
F0.064000000000000001
aF0.127
aF0.80900000000000005
aa(lp1839
F0.073999999999999996
aF0.11799999999999999
aF0.80800000000000005
aa(lp1840
F0.053999999999999999
aF0.14199999999999999
aF0.80400000000000005
aasg14
(lp1841
(lp1842
F0.47899999999999998
aF0.066000000000000003
aF0.45500000000000002
aa(lp1843
F0.31
aF0.064000000000000001
aF0.626
aa(lp1844
F0.251
aF0.060999999999999999
aF0.68799999999999994
aa(lp1845
F0.19600000000000001
aF0.082000000000000003
aF0.72199999999999998
aa(lp1846
F0.14899999999999999
aF0.095000000000000001
aF0.75600000000000001
aa(lp1847
F0.14000000000000001
aF0.104
aF0.75600000000000001
aa(lp1848
F0.126
aF0.111
aF0.76300000000000001
aa(lp1849
F0.11700000000000001
aF0.112
aF0.77100000000000002
aa(lp1850
F0.111
aF0.13600000000000001
aF0.753
aassS'2.5'
p1851
(dp1852
g3
(lp1853
(lp1854
F0.379
aF0.083000000000000004
aF0.53800000000000003
aa(lp1855
F0.25
aF0.058999999999999997
aF0.69099999999999995
aa(lp1856
F0.16900000000000001
aF0.075999999999999998
aF0.755
aa(lp1857
F0.13700000000000001
aF0.069000000000000006
aF0.79400000000000004
aa(lp1858
F0.094
aF0.106
aF0.80000000000000004
aa(lp1859
F0.098000000000000004
aF0.087999999999999995
aF0.81399999999999995
aa(lp1860
F0.084000000000000005
aF0.109
aF0.80700000000000005
aa(lp1861
F0.070000000000000007
aF0.128
aF0.80200000000000005
aa(lp1862
F0.070999999999999994
aF0.14499999999999999
aF0.78400000000000003
aasg14
(lp1863
(lp1864
F0.432
aF0.070000000000000007
aF0.498
aa(lp1865
F0.27900000000000003
aF0.072999999999999995
aF0.64800000000000002
aa(lp1866
F0.22
aF0.079000000000000001
aF0.70099999999999996
aa(lp1867
F0.19400000000000001
aF0.076999999999999999
aF0.72899999999999998
aa(lp1868
F0.152
aF0.078
aF0.77000000000000002
aa(lp1869
F0.13400000000000001
aF0.096000000000000002
aF0.77000000000000002
aa(lp1870
F0.13700000000000001
aF0.105
aF0.75800000000000001
aa(lp1871
F0.099000000000000005
aF0.108
aF0.79300000000000004
aa(lp1872
F0.10299999999999999
aF0.14399999999999999
aF0.753
aassS'2.4'
p1873
(dp1874
g3
(lp1875
(lp1876
F0.372
aF0.089999999999999997
aF0.53800000000000003
aa(lp1877
F0.23000000000000001
aF0.060999999999999999
aF0.70899999999999996
aa(lp1878
F0.17100000000000001
aF0.090999999999999998
aF0.73799999999999999
aa(lp1879
F0.13100000000000001
aF0.10000000000000001
aF0.76900000000000002
aa(lp1880
F0.10299999999999999
aF0.091999999999999998
aF0.80500000000000005
aa(lp1881
F0.083000000000000004
aF0.099000000000000005
aF0.81799999999999995
aa(lp1882
F0.071999999999999995
aF0.108
aF0.81999999999999995
aa(lp1883
F0.062
aF0.123
aF0.81499999999999995
aa(lp1884
F0.070000000000000007
aF0.14299999999999999
aF0.78700000000000003
aasg14
(lp1885
(lp1886
F0.40999999999999998
aF0.083000000000000004
aF0.50700000000000001
aa(lp1887
F0.29899999999999999
aF0.072999999999999995
aF0.628
aa(lp1888
F0.223
aF0.072999999999999995
aF0.70399999999999996
aa(lp1889
F0.19700000000000001
aF0.067000000000000004
aF0.73599999999999999
aa(lp1890
F0.16700000000000001
aF0.085000000000000006
aF0.748
aa(lp1891
F0.13900000000000001
aF0.106
aF0.755
aa(lp1892
F0.14199999999999999
aF0.090999999999999998
aF0.76700000000000002
aa(lp1893
F0.124
aF0.121
aF0.755
aa(lp1894
F0.098000000000000004
aF0.109
aF0.79300000000000004
aassS'13.14'
p1895
(dp1896
g3
(lp1897
(lp1898
F0.67000000000000004
aF0.036999999999999998
aF0.29299999999999998
aa(lp1899
F0.49399999999999999
aF0.058999999999999997
aF0.44700000000000001
aa(lp1900
F0.434
aF0.051999999999999998
aF0.51400000000000001
aa(lp1901
F0.34499999999999997
aF0.075999999999999998
aF0.57899999999999996
aa(lp1902
F0.33500000000000002
aF0.080000000000000002
aF0.58499999999999996
aa(lp1903
F0.27400000000000002
aF0.099000000000000005
aF0.627
aa(lp1904
F0.219
aF0.10000000000000001
aF0.68100000000000005
aa(lp1905
F0.17899999999999999
aF0.122
aF0.69899999999999995
aa(lp1906
F0.17699999999999999
aF0.13700000000000001
aF0.68600000000000005
aasg14
(lp1907
(lp1908
F0.70399999999999996
aF0.035000000000000003
aF0.26100000000000001
aa(lp1909
F0.58699999999999997
aF0.042000000000000003
aF0.371
aa(lp1910
F0.45600000000000002
aF0.059999999999999998
aF0.48399999999999999
aa(lp1911
F0.41599999999999998
aF0.052999999999999999
aF0.53100000000000003
aa(lp1912
F0.35599999999999998
aF0.082000000000000003
aF0.56200000000000006
aa(lp1913
F0.28699999999999998
aF0.081000000000000003
aF0.63200000000000001
aa(lp1914
F0.26600000000000001
aF0.099000000000000005
aF0.63500000000000001
aa(lp1915
F0.23899999999999999
aF0.105
aF0.65600000000000003
aa(lp1916
F0.24299999999999999
aF0.11700000000000001
aF0.64000000000000001
aassS'13.13'
p1917
(dp1918
g3
(lp1919
(lp1920
F0.85099999999999998
aF0.012
aF0.13700000000000001
aa(lp1921
F0.72899999999999998
aF0.016
aF0.255
aa(lp1922
F0.63800000000000001
aF0.025000000000000001
aF0.33700000000000002
aa(lp1923
F0.57999999999999996
aF0.039
aF0.38100000000000001
aa(lp1924
F0.48899999999999999
aF0.050000000000000003
aF0.46100000000000002
aa(lp1925
F0.46100000000000002
aF0.064000000000000001
aF0.47499999999999998
aa(lp1926
F0.40799999999999997
aF0.063
aF0.52900000000000003
aa(lp1927
F0.36099999999999999
aF0.081000000000000003
aF0.55800000000000005
aa(lp1928
F0.35699999999999998
aF0.080000000000000002
aF0.56299999999999994
aasg14
(lp1929
(lp1930
F0.872
aF0.0089999999999999993
aF0.11899999999999999
aa(lp1931
F0.76200000000000001
aF0.016
aF0.222
aa(lp1932
F0.67300000000000004
aF0.017000000000000001
aF0.31
aa(lp1933
F0.58099999999999996
aF0.029000000000000001
aF0.39000000000000001
aa(lp1934
F0.55800000000000005
aF0.044999999999999998
aF0.39700000000000002
aa(lp1935
F0.496
aF0.050000000000000003
aF0.45400000000000001
aa(lp1936
F0.41299999999999998
aF0.070000000000000007
aF0.51700000000000002
aa(lp1937
F0.44
aF0.071999999999999995
aF0.48799999999999999
aa(lp1938
F0.40799999999999997
aF0.084000000000000005
aF0.50800000000000001
aassS'12.14'
p1939
(dp1940
g3
(lp1941
(lp1942
F0.66200000000000003
aF0.044999999999999998
aF0.29299999999999998
aa(lp1943
F0.504
aF0.042000000000000003
aF0.45400000000000001
aa(lp1944
F0.39500000000000002
aF0.052999999999999999
aF0.55200000000000005
aa(lp1945
F0.309
aF0.088999999999999996
aF0.60199999999999998
aa(lp1946
F0.28000000000000003
aF0.091999999999999998
aF0.628
aa(lp1947
F0.19900000000000001
aF0.10000000000000001
aF0.70099999999999996
aa(lp1948
F0.217
aF0.10100000000000001
aF0.68200000000000005
aa(lp1949
F0.17399999999999999
aF0.129
aF0.69699999999999995
aa(lp1950
F0.13900000000000001
aF0.14799999999999999
aF0.71299999999999997
aasg14
(lp1951
(lp1952
F0.71399999999999997
aF0.025000000000000001
aF0.26100000000000001
aa(lp1953
F0.55600000000000005
aF0.045999999999999999
aF0.39800000000000002
aa(lp1954
F0.44
aF0.048000000000000001
aF0.51200000000000001
aa(lp1955
F0.38700000000000001
aF0.079000000000000001
aF0.53400000000000003
aa(lp1956
F0.29799999999999999
aF0.086999999999999994
aF0.61499999999999999
aa(lp1957
F0.29199999999999998
aF0.076999999999999999
aF0.63100000000000001
aa(lp1958
F0.26200000000000001
aF0.086999999999999994
aF0.65100000000000002
aa(lp1959
F0.23400000000000001
aF0.095000000000000001
aF0.67100000000000004
aa(lp1960
F0.218
aF0.124
aF0.65800000000000003
aassS'12.13'
p1961
(dp1962
g3
(lp1963
(lp1964
F0.627
aF0.043999999999999997
aF0.32900000000000001
aa(lp1965
F0.47299999999999998
aF0.052999999999999999
aF0.47399999999999998
aa(lp1966
F0.379
aF0.058999999999999997
aF0.56200000000000006
aa(lp1967
F0.32100000000000001
aF0.076999999999999999
aF0.60199999999999998
aa(lp1968
F0.28199999999999997
aF0.083000000000000004
aF0.63500000000000001
aa(lp1969
F0.24199999999999999
aF0.12
aF0.63800000000000001
aa(lp1970
F0.19400000000000001
aF0.112
aF0.69399999999999995
aa(lp1971
F0.16
aF0.12
aF0.71999999999999997
aa(lp1972
F0.13200000000000001
aF0.14499999999999999
aF0.72299999999999998
aasg14
(lp1973
(lp1974
F0.65900000000000003
aF0.032000000000000001
aF0.309
aa(lp1975
F0.53400000000000003
aF0.047
aF0.41899999999999998
aa(lp1976
F0.44600000000000001
aF0.056000000000000001
aF0.498
aa(lp1977
F0.35699999999999998
aF0.070000000000000007
aF0.57299999999999995
aa(lp1978
F0.32400000000000001
aF0.087999999999999995
aF0.58799999999999997
aa(lp1979
F0.26400000000000001
aF0.10299999999999999
aF0.63300000000000001
aa(lp1980
F0.27200000000000002
aF0.094
aF0.63400000000000001
aa(lp1981
F0.23100000000000001
aF0.108
aF0.66100000000000003
aa(lp1982
F0.20599999999999999
aF0.159
aF0.63500000000000001
aassS'12.12'
p1983
(dp1984
g3
(lp1985
(lp1986
F0.80200000000000005
aF0.0080000000000000002
aF0.19
aa(lp1987
F0.70099999999999996
aF0.021000000000000001
aF0.27800000000000002
aa(lp1988
F0.59899999999999998
aF0.033000000000000002
aF0.36799999999999999
aa(lp1989
F0.53400000000000003
aF0.051999999999999998
aF0.41399999999999998
aa(lp1990
F0.46100000000000002
aF0.053999999999999999
aF0.48499999999999999
aa(lp1991
F0.432
aF0.056000000000000001
aF0.51200000000000001
aa(lp1992
F0.33600000000000002
aF0.080000000000000002
aF0.58399999999999996
aa(lp1993
F0.34000000000000002
aF0.105
aF0.55500000000000005
aa(lp1994
F0.32800000000000001
aF0.089999999999999997
aF0.58199999999999996
aasg14
(lp1995
(lp1996
F0.82999999999999996
aF0.0089999999999999993
aF0.161
aa(lp1997
F0.71599999999999997
aF0.019
aF0.26500000000000001
aa(lp1998
F0.624
aF0.016
aF0.35999999999999999
aa(lp1999
F0.53700000000000003
aF0.029000000000000001
aF0.434
aa(lp2000
F0.49299999999999999
aF0.041000000000000002
aF0.46600000000000003
aa(lp2001
F0.433
aF0.049000000000000002
aF0.51800000000000002
aa(lp2002
F0.41699999999999998
aF0.058999999999999997
aF0.52400000000000002
aa(lp2003
F0.36599999999999999
aF0.058000000000000003
aF0.57599999999999996
aa(lp2004
F0.33200000000000002
aF0.084000000000000005
aF0.58399999999999996
aass.